
../vmlinux:     file format elf64-x86-64


Disassembly of section .text:

ffffffff811c8e20 <get_page_from_freelist>:
ffffffff811c8e20:	e8 1b 41 e8 ff       	call   ffffffff8104cf40 <__fentry__>
ffffffff811c8e25:	41 57                	push   %r15
ffffffff811c8e27:	41 56                	push   %r14
ffffffff811c8e29:	41 55                	push   %r13
ffffffff811c8e2b:	41 54                	push   %r12
ffffffff811c8e2d:	49 89 cc             	mov    %rcx,%r12
ffffffff811c8e30:	89 f1                	mov    %esi,%ecx
ffffffff811c8e32:	55                   	push   %rbp
ffffffff811c8e33:	53                   	push   %rbx
ffffffff811c8e34:	48 81 ec c8 00 00 00 	sub    $0xc8,%rsp
ffffffff811c8e3b:	89 7c 24 6c          	mov    %edi,0x6c(%rsp)
ffffffff811c8e3f:	89 b4 24 a8 00 00 00 	mov    %esi,0xa8(%rsp)
ffffffff811c8e46:	89 54 24 04          	mov    %edx,0x4(%rsp)
ffffffff811c8e4a:	65 48 8b 04 25 28 00 	mov    %gs:0x28,%rax
ffffffff811c8e51:	00 00 
ffffffff811c8e53:	48 89 84 24 c0 00 00 	mov    %rax,0xc0(%rsp)
ffffffff811c8e5a:	00 
ffffffff811c8e5b:	b8 01 00 00 00       	mov    $0x1,%eax
ffffffff811c8e60:	4c 89 64 24 78       	mov    %r12,0x78(%rsp)
ffffffff811c8e65:	48 c7 44 24 40 00 00 	movq   $0x0,0x40(%rsp)
ffffffff811c8e6c:	00 00 
ffffffff811c8e6e:	d3 e0                	shl    %cl,%eax
ffffffff811c8e70:	49 8b 4c 24 10       	mov    0x10(%r12),%rcx
ffffffff811c8e75:	89 c3                	mov    %eax,%ebx
ffffffff811c8e77:	89 44 24 4c          	mov    %eax,0x4c(%rsp)
ffffffff811c8e7b:	89 f0                	mov    %esi,%eax
ffffffff811c8e7d:	48 8d 04 c0          	lea    (%rax,%rax,8),%rax
ffffffff811c8e81:	4c 8b 29             	mov    (%rcx),%r13
ffffffff811c8e84:	49 89 c8             	mov    %rcx,%r8
ffffffff811c8e87:	48 c1 e0 03          	shl    $0x3,%rax
ffffffff811c8e8b:	48 89 84 24 a0 00 00 	mov    %rax,0xa0(%rsp)
ffffffff811c8e92:	00 
ffffffff811c8e93:	48 05 f0 00 00 00    	add    $0xf0,%rax
ffffffff811c8e99:	4d 89 ee             	mov    %r13,%r14
ffffffff811c8e9c:	48 89 84 24 98 00 00 	mov    %rax,0x98(%rsp)
ffffffff811c8ea3:	00 
ffffffff811c8ea4:	48 63 c3             	movslq %ebx,%rax
ffffffff811c8ea7:	48 89 84 24 b0 00 00 	mov    %rax,0xb0(%rsp)
ffffffff811c8eae:	00 
ffffffff811c8eaf:	48 c1 e0 06          	shl    $0x6,%rax
ffffffff811c8eb3:	48 89 44 24 50       	mov    %rax,0x50(%rsp)
ffffffff811c8eb8:	8b 44 24 04          	mov    0x4(%rsp),%eax
ffffffff811c8ebc:	25 00 01 00 00       	and    $0x100,%eax
ffffffff811c8ec1:	89 44 24 48          	mov    %eax,0x48(%rsp)
ffffffff811c8ec5:	4d 85 f6             	test   %r14,%r14
ffffffff811c8ec8:	0f 84 9f 05 00 00    	je     ffffffff811c946d <get_page_from_freelist+0x64d>
ffffffff811c8ece:	44 8b ac 24 a8 00 00 	mov    0xa8(%rsp),%r13d
ffffffff811c8ed5:	00 
ffffffff811c8ed6:	48 8b 6c 24 78       	mov    0x78(%rsp),%rbp
ffffffff811c8edb:	4d 89 c7             	mov    %r8,%r15
ffffffff811c8ede:	e9 f4 00 00 00       	jmp    ffffffff811c8fd7 <get_page_from_freelist+0x1b7>
ffffffff811c8ee3:	83 e7 18             	and    $0x18,%edi
ffffffff811c8ee6:	4c 89 ca             	mov    %r9,%rdx
ffffffff811c8ee9:	75 04                	jne    ffffffff811c8eef <get_page_from_freelist+0xcf>
ffffffff811c8eeb:	49 2b 56 20          	sub    0x20(%r14),%rdx
ffffffff811c8eef:	4c 63 d1             	movslq %ecx,%r10
ffffffff811c8ef2:	4b 8b 44 d6 28       	mov    0x28(%r14,%r10,8),%rax
ffffffff811c8ef7:	48 01 d8             	add    %rbx,%rax
ffffffff811c8efa:	48 39 d0             	cmp    %rdx,%rax
ffffffff811c8efd:	0f 82 ef 05 00 00    	jb     ffffffff811c94f2 <get_page_from_freelist+0x6d2>
ffffffff811c8f03:	44 8b 44 24 04       	mov    0x4(%rsp),%r8d
ffffffff811c8f08:	31 f6                	xor    %esi,%esi
ffffffff811c8f0a:	48 89 da             	mov    %rbx,%rdx
ffffffff811c8f0d:	4c 89 f7             	mov    %r14,%rdi
ffffffff811c8f10:	4c 89 54 24 20       	mov    %r10,0x20(%rsp)
ffffffff811c8f15:	44 89 5c 24 18       	mov    %r11d,0x18(%rsp)
ffffffff811c8f1a:	4c 89 4c 24 10       	mov    %r9,0x10(%rsp)
ffffffff811c8f1f:	89 4c 24 08          	mov    %ecx,0x8(%rsp)
ffffffff811c8f23:	e8 c8 fd ff ff       	call   ffffffff811c8cf0 <__zone_watermark_ok>
ffffffff811c8f28:	8b 4c 24 08          	mov    0x8(%rsp),%ecx
ffffffff811c8f2c:	4c 8b 4c 24 10       	mov    0x10(%rsp),%r9
ffffffff811c8f31:	84 c0                	test   %al,%al
ffffffff811c8f33:	44 8b 5c 24 18       	mov    0x18(%rsp),%r11d
ffffffff811c8f38:	4c 8b 54 24 20       	mov    0x20(%rsp),%r10
ffffffff811c8f3d:	0f 85 af 05 00 00    	jne    ffffffff811c94f2 <get_page_from_freelist+0x6d2>
ffffffff811c8f43:	8b 44 24 6c          	mov    0x6c(%rsp),%eax
ffffffff811c8f47:	c1 e8 09             	shr    $0x9,%eax
ffffffff811c8f4a:	45 85 db             	test   %r11d,%r11d
ffffffff811c8f4d:	0f 94 c2             	sete   %dl
ffffffff811c8f50:	84 c2                	test   %al,%dl
ffffffff811c8f52:	74 09                	je     ffffffff811c8f5d <get_page_from_freelist+0x13d>
ffffffff811c8f54:	4d 85 e4             	test   %r12,%r12
ffffffff811c8f57:	0f 85 5a 05 00 00    	jne    ffffffff811c94b7 <get_page_from_freelist+0x697>
ffffffff811c8f5d:	f6 44 24 04 04       	testb  $0x4,0x4(%rsp)
ffffffff811c8f62:	0f 85 8a 05 00 00    	jne    ffffffff811c94f2 <get_page_from_freelist+0x6d2>
ffffffff811c8f68:	8b 3d 82 03 4b 01    	mov    0x14b0382(%rip),%edi        # ffffffff826792f0 <node_reclaim_mode>
ffffffff811c8f6e:	85 ff                	test   %edi,%edi
ffffffff811c8f70:	74 3b                	je     ffffffff811c8fad <get_page_from_freelist+0x18d>
ffffffff811c8f72:	48 8b 45 10          	mov    0x10(%rbp),%rax
ffffffff811c8f76:	41 8b 76 48          	mov    0x48(%r14),%esi
ffffffff811c8f7a:	48 8b 00             	mov    (%rax),%rax
ffffffff811c8f7d:	8b 78 48             	mov    0x48(%rax),%edi
ffffffff811c8f80:	e8 2b 52 e9 ff       	call   ffffffff8105e1b0 <__node_distance>
ffffffff811c8f85:	3b 05 01 f9 4a 01    	cmp    0x14af901(%rip),%eax        # ffffffff8267888c <node_reclaim_distance>
ffffffff811c8f8b:	0f 8f b2 04 00 00    	jg     ffffffff811c9443 <get_page_from_freelist+0x623>
ffffffff811c8f91:	49 8b 7e 50          	mov    0x50(%r14),%rdi
ffffffff811c8f95:	8b 74 24 6c          	mov    0x6c(%rsp),%esi
ffffffff811c8f99:	44 89 ea             	mov    %r13d,%edx
ffffffff811c8f9c:	e8 bf 77 fc ff       	call   ffffffff81190760 <node_reclaim>
ffffffff811c8fa1:	8b 4d 1c             	mov    0x1c(%rbp),%ecx
ffffffff811c8fa4:	83 f8 fe             	cmp    $0xfffffffe,%eax
ffffffff811c8fa7:	0f 82 40 0e 00 00    	jb     ffffffff811c9ded <get_page_from_freelist+0xfcd>
ffffffff811c8fad:	48 8b 55 08          	mov    0x8(%rbp),%rdx
ffffffff811c8fb1:	49 8d 7f 10          	lea    0x10(%r15),%rdi
ffffffff811c8fb5:	48 85 d2             	test   %rdx,%rdx
ffffffff811c8fb8:	0f 85 99 04 00 00    	jne    ffffffff811c9457 <get_page_from_freelist+0x637>
ffffffff811c8fbe:	41 3b 4f 18          	cmp    0x18(%r15),%ecx
ffffffff811c8fc2:	0f 82 8f 04 00 00    	jb     ffffffff811c9457 <get_page_from_freelist+0x637>
ffffffff811c8fc8:	49 89 ff             	mov    %rdi,%r15
ffffffff811c8fcb:	4d 8b 37             	mov    (%r15),%r14
ffffffff811c8fce:	4d 85 f6             	test   %r14,%r14
ffffffff811c8fd1:	0f 84 96 04 00 00    	je     ffffffff811c946d <get_page_from_freelist+0x64d>
ffffffff811c8fd7:	0f 1f 44 00 00       	nopl   0x0(%rax,%rax,1)
ffffffff811c8fdc:	80 7d 20 00          	cmpb   $0x0,0x20(%rbp)
ffffffff811c8fe0:	74 1c                	je     ffffffff811c8ffe <get_page_from_freelist+0x1de>
ffffffff811c8fe2:	49 8b 7e 50          	mov    0x50(%r14),%rdi
ffffffff811c8fe6:	48 39 7c 24 40       	cmp    %rdi,0x40(%rsp)
ffffffff811c8feb:	0f 84 52 04 00 00    	je     ffffffff811c9443 <get_page_from_freelist+0x623>
ffffffff811c8ff1:	e8 4a ad fb ff       	call   ffffffff81183d40 <node_dirty_ok>
ffffffff811c8ff6:	84 c0                	test   %al,%al
ffffffff811c8ff8:	0f 84 be 07 00 00    	je     ffffffff811c97bc <get_page_from_freelist+0x99c>
ffffffff811c8ffe:	44 8b 44 24 48       	mov    0x48(%rsp),%r8d
ffffffff811c9003:	45 85 c0             	test   %r8d,%r8d
ffffffff811c9006:	74 22                	je     ffffffff811c902a <get_page_from_freelist+0x20a>
ffffffff811c9008:	83 3d 75 03 4b 01 01 	cmpl   $0x1,0x14b0375(%rip)        # ffffffff82679384 <nr_online_nodes>
ffffffff811c900f:	76 19                	jbe    ffffffff811c902a <get_page_from_freelist+0x20a>
ffffffff811c9011:	48 8b 55 10          	mov    0x10(%rbp),%rdx
ffffffff811c9015:	48 8b 02             	mov    (%rdx),%rax
ffffffff811c9018:	4c 39 f0             	cmp    %r14,%rax
ffffffff811c901b:	74 0d                	je     ffffffff811c902a <get_page_from_freelist+0x20a>
ffffffff811c901d:	8b 58 48             	mov    0x48(%rax),%ebx
ffffffff811c9020:	41 39 5e 48          	cmp    %ebx,0x48(%r14)
ffffffff811c9024:	0f 85 71 0f 00 00    	jne    ffffffff811c9f9b <get_page_from_freelist+0x117b>
ffffffff811c902a:	8b 7c 24 04          	mov    0x4(%rsp),%edi
ffffffff811c902e:	4d 8b 8e 40 04 00 00 	mov    0x440(%r14),%r9
ffffffff811c9035:	4d 8b 66 18          	mov    0x18(%r14),%r12
ffffffff811c9039:	8b 4d 1c             	mov    0x1c(%rbp),%ecx
ffffffff811c903c:	89 f8                	mov    %edi,%eax
ffffffff811c903e:	41 89 fb             	mov    %edi,%r11d
ffffffff811c9041:	83 e0 03             	and    $0x3,%eax
ffffffff811c9044:	41 83 e3 03          	and    $0x3,%r11d
ffffffff811c9048:	49 8b 1c c6          	mov    (%r14,%rax,8),%rbx
ffffffff811c904c:	31 c0                	xor    %eax,%eax
ffffffff811c904e:	4c 01 e3             	add    %r12,%rbx
ffffffff811c9051:	4d 85 c9             	test   %r9,%r9
ffffffff811c9054:	4c 0f 48 c8          	cmovs  %rax,%r9
ffffffff811c9058:	45 85 ed             	test   %r13d,%r13d
ffffffff811c905b:	0f 84 82 fe ff ff    	je     ffffffff811c8ee3 <get_page_from_freelist+0xc3>
ffffffff811c9061:	44 8b 44 24 04       	mov    0x4(%rsp),%r8d
ffffffff811c9066:	48 89 da             	mov    %rbx,%rdx
ffffffff811c9069:	44 89 ee             	mov    %r13d,%esi
ffffffff811c906c:	4c 89 f7             	mov    %r14,%rdi
ffffffff811c906f:	89 4c 24 08          	mov    %ecx,0x8(%rsp)
ffffffff811c9073:	e8 78 fc ff ff       	call   ffffffff811c8cf0 <__zone_watermark_ok>
ffffffff811c9078:	8b 4c 24 08          	mov    0x8(%rsp),%ecx
ffffffff811c907c:	84 c0                	test   %al,%al
ffffffff811c907e:	75 0b                	jne    ffffffff811c908b <get_page_from_freelist+0x26b>
ffffffff811c9080:	f6 44 24 04 04       	testb  $0x4,0x4(%rsp)
ffffffff811c9085:	0f 84 dd fe ff ff    	je     ffffffff811c8f68 <get_page_from_freelist+0x148>
ffffffff811c908b:	8b 45 18             	mov    0x18(%rbp),%eax
ffffffff811c908e:	89 44 24 08          	mov    %eax,0x8(%rsp)
ffffffff811c9092:	48 8b 45 10          	mov    0x10(%rbp),%rax
ffffffff811c9096:	48 8b 00             	mov    (%rax),%rax
ffffffff811c9099:	48 89 44 24 30       	mov    %rax,0x30(%rsp)
ffffffff811c909e:	f7 44 24 6c 00 80 00 	testl  $0x8000,0x6c(%rsp)
ffffffff811c90a5:	00 
ffffffff811c90a6:	74 08                	je     ffffffff811c90b0 <get_page_from_freelist+0x290>
ffffffff811c90a8:	41 83 fd 01          	cmp    $0x1,%r13d
ffffffff811c90ac:	74 02                	je     ffffffff811c90b0 <get_page_from_freelist+0x290>
ffffffff811c90ae:	0f 0b                	ud2
ffffffff811c90b0:	49 8d be e0 03 00 00 	lea    0x3e0(%r14),%rdi
ffffffff811c90b7:	e8 f4 c6 9f 00       	call   ffffffff81bc57b0 <_raw_spin_lock_irqsave>
ffffffff811c90bc:	48 8b 8c 24 98 00 00 	mov    0x98(%rsp),%rcx
ffffffff811c90c3:	00 
ffffffff811c90c4:	8b 5c 24 04          	mov    0x4(%rsp),%ebx
ffffffff811c90c8:	48 89 44 24 58       	mov    %rax,0x58(%rsp)
ffffffff811c90cd:	48 63 44 24 08       	movslq 0x8(%rsp),%rax
ffffffff811c90d2:	4c 01 f1             	add    %r14,%rcx
ffffffff811c90d5:	83 e3 10             	and    $0x10,%ebx
ffffffff811c90d8:	48 89 6c 24 18       	mov    %rbp,0x18(%rsp)
ffffffff811c90dd:	48 89 4c 24 28       	mov    %rcx,0x28(%rsp)
ffffffff811c90e2:	49 89 c4             	mov    %rax,%r12
ffffffff811c90e5:	48 8b 8c 24 a0 00 00 	mov    0xa0(%rsp),%rcx
ffffffff811c90ec:	00 
ffffffff811c90ed:	89 dd                	mov    %ebx,%ebp
ffffffff811c90ef:	49 c1 e4 04          	shl    $0x4,%r12
ffffffff811c90f3:	4c 89 7c 24 10       	mov    %r15,0x10(%rsp)
ffffffff811c90f8:	49 89 c7             	mov    %rax,%r15
ffffffff811c90fb:	49 8d 8c 0c c0 00 00 	lea    0xc0(%r12,%rcx,1),%rcx
ffffffff811c9102:	00 
ffffffff811c9103:	48 89 4c 24 38       	mov    %rcx,0x38(%rsp)
ffffffff811c9108:	85 ed                	test   %ebp,%ebp
ffffffff811c910a:	0f 85 b8 01 00 00    	jne    ffffffff811c92c8 <get_page_from_freelist+0x4a8>
ffffffff811c9110:	41 83 fd 0a          	cmp    $0xa,%r13d
ffffffff811c9114:	0f 87 cd 06 00 00    	ja     ffffffff811c97e7 <get_page_from_freelist+0x9c7>
ffffffff811c911a:	48 8b 44 24 38       	mov    0x38(%rsp),%rax
ffffffff811c911f:	4d 89 f8             	mov    %r15,%r8
ffffffff811c9122:	44 89 e9             	mov    %r13d,%ecx
ffffffff811c9125:	49 c1 e0 04          	shl    $0x4,%r8
ffffffff811c9129:	49 8d 34 06          	lea    (%r14,%rax,1),%rsi
ffffffff811c912d:	89 c8                	mov    %ecx,%eax
ffffffff811c912f:	48 8d 04 c0          	lea    (%rax,%rax,8),%rax
ffffffff811c9133:	48 c1 e0 03          	shl    $0x3,%rax
ffffffff811c9137:	49 8d 14 00          	lea    (%r8,%rax,1),%rdx
ffffffff811c913b:	4c 01 f2             	add    %r14,%rdx
ffffffff811c913e:	48 8b ba c0 00 00 00 	mov    0xc0(%rdx),%rdi
ffffffff811c9145:	48 39 f7             	cmp    %rsi,%rdi
ffffffff811c9148:	0f 84 af 06 00 00    	je     ffffffff811c97fd <get_page_from_freelist+0x9dd>
ffffffff811c914e:	48 89 fb             	mov    %rdi,%rbx
ffffffff811c9151:	48 83 eb 08          	sub    $0x8,%rbx
ffffffff811c9155:	0f 84 a2 06 00 00    	je     ffffffff811c97fd <get_page_from_freelist+0x9dd>
ffffffff811c915b:	48 8b 37             	mov    (%rdi),%rsi
ffffffff811c915e:	48 8b 57 08          	mov    0x8(%rdi),%rdx
ffffffff811c9162:	41 b8 01 00 00 00    	mov    $0x1,%r8d
ffffffff811c9168:	4d 89 fb             	mov    %r15,%r11
ffffffff811c916b:	41 d3 e0             	shl    %cl,%r8d
ffffffff811c916e:	49 c1 e3 04          	shl    $0x4,%r11
ffffffff811c9172:	48 89 56 08          	mov    %rdx,0x8(%rsi)
ffffffff811c9176:	4d 63 c0             	movslq %r8d,%r8
ffffffff811c9179:	48 89 32             	mov    %rsi,(%rdx)
ffffffff811c917c:	48 be 00 01 00 00 00 	movabs $0xdead000000000100,%rsi
ffffffff811c9183:	00 ad de 
ffffffff811c9186:	48 89 37             	mov    %rsi,(%rdi)
ffffffff811c9189:	48 83 c6 22          	add    $0x22,%rsi
ffffffff811c918d:	81 4f 28 80 00 00 00 	orl    $0x80,0x28(%rdi)
ffffffff811c9194:	48 89 77 08          	mov    %rsi,0x8(%rdi)
ffffffff811c9198:	48 c7 47 20 00 00 00 	movq   $0x0,0x20(%rdi)
ffffffff811c919f:	00 
ffffffff811c91a0:	49 83 ac 06 00 01 00 	subq   $0x1,0x100(%r14,%rax,1)
ffffffff811c91a7:	00 01 
ffffffff811c91a9:	44 39 e9             	cmp    %r13d,%ecx
ffffffff811c91ac:	7e 6e                	jle    ffffffff811c921c <get_page_from_freelist+0x3fc>
ffffffff811c91ae:	48 89 7c 24 20       	mov    %rdi,0x20(%rsp)
ffffffff811c91b3:	83 e9 01             	sub    $0x1,%ecx
ffffffff811c91b6:	49 d1 e8             	shr    $1,%r8
ffffffff811c91b9:	48 63 f9             	movslq %ecx,%rdi
ffffffff811c91bc:	4c 89 c0             	mov    %r8,%rax
ffffffff811c91bf:	48 8d 14 ff          	lea    (%rdi,%rdi,8),%rdx
ffffffff811c91c3:	48 c1 e0 06          	shl    $0x6,%rax
ffffffff811c91c7:	49 8d b4 d4 c0 00 00 	lea    0xc0(%r12,%rdx,8),%rsi
ffffffff811c91ce:	00 
ffffffff811c91cf:	89 ca                	mov    %ecx,%edx
ffffffff811c91d1:	48 01 d8             	add    %rbx,%rax
ffffffff811c91d4:	48 8d 14 d2          	lea    (%rdx,%rdx,8),%rdx
ffffffff811c91d8:	4c 01 f6             	add    %r14,%rsi
ffffffff811c91db:	4c 8d 48 08          	lea    0x8(%rax),%r9
ffffffff811c91df:	48 c1 e2 03          	shl    $0x3,%rdx
ffffffff811c91e3:	4d 8d 14 13          	lea    (%r11,%rdx,1),%r10
ffffffff811c91e7:	4f 8b 94 16 c0 00 00 	mov    0xc0(%r14,%r10,1),%r10
ffffffff811c91ee:	00 
ffffffff811c91ef:	4d 89 4a 08          	mov    %r9,0x8(%r10)
ffffffff811c91f3:	4c 89 50 08          	mov    %r10,0x8(%rax)
ffffffff811c91f7:	48 89 70 10          	mov    %rsi,0x10(%rax)
ffffffff811c91fb:	4c 89 0e             	mov    %r9,(%rsi)
ffffffff811c91fe:	49 83 84 16 00 01 00 	addq   $0x1,0x100(%r14,%rdx,1)
ffffffff811c9205:	00 01 
ffffffff811c9207:	48 89 78 28          	mov    %rdi,0x28(%rax)
ffffffff811c920b:	81 60 30 7f ff ff ff 	andl   $0xffffff7f,0x30(%rax)
ffffffff811c9212:	44 39 e9             	cmp    %r13d,%ecx
ffffffff811c9215:	75 9c                	jne    ffffffff811c91b3 <get_page_from_freelist+0x393>
ffffffff811c9217:	48 8b 7c 24 20       	mov    0x20(%rsp),%rdi
ffffffff811c921c:	4c 89 7f 18          	mov    %r15,0x18(%rdi)
ffffffff811c9220:	0f 1f 44 00 00       	nopl   0x0(%rax,%rax,1)
ffffffff811c9225:	48 85 db             	test   %rbx,%rbx
ffffffff811c9228:	0f 84 08 04 00 00    	je     ffffffff811c9636 <get_page_from_freelist+0x816>
ffffffff811c922e:	8b 54 24 4c          	mov    0x4c(%rsp),%edx
ffffffff811c9232:	85 d2                	test   %edx,%edx
ffffffff811c9234:	0f 8e fc 03 00 00    	jle    ffffffff811c9636 <get_page_from_freelist+0x816>
ffffffff811c923a:	48 8b 44 24 50       	mov    0x50(%rsp),%rax
ffffffff811c923f:	48 89 df             	mov    %rbx,%rdi
ffffffff811c9242:	4c 8d 04 18          	lea    (%rax,%rbx,1),%r8
ffffffff811c9246:	eb 1c                	jmp    ffffffff811c9264 <get_page_from_freelist+0x444>
ffffffff811c9248:	48 63 47 34          	movslq 0x34(%rdi),%rax
ffffffff811c924c:	48 89 ce             	mov    %rcx,%rsi
ffffffff811c924f:	48 09 d6             	or     %rdx,%rsi
ffffffff811c9252:	48 09 c6             	or     %rax,%rsi
ffffffff811c9255:	75 22                	jne    ffffffff811c9279 <get_page_from_freelist+0x459>
ffffffff811c9257:	48 83 c7 40          	add    $0x40,%rdi
ffffffff811c925b:	49 39 f8             	cmp    %rdi,%r8
ffffffff811c925e:	0f 84 d2 03 00 00    	je     ffffffff811c9636 <get_page_from_freelist+0x816>
ffffffff811c9264:	48 8b 17             	mov    (%rdi),%rdx
ffffffff811c9267:	8b 47 30             	mov    0x30(%rdi),%eax
ffffffff811c926a:	48 8b 4f 18          	mov    0x18(%rdi),%rcx
ffffffff811c926e:	81 e2 ff ff ff 00    	and    $0xffffff,%edx
ffffffff811c9274:	83 f8 ff             	cmp    $0xffffffff,%eax
ffffffff811c9277:	74 cf                	je     ffffffff811c9248 <get_page_from_freelist+0x428>
ffffffff811c9279:	8b 47 30             	mov    0x30(%rdi),%eax
ffffffff811c927c:	48 c7 c6 67 ca 20 82 	mov    $0xffffffff8220ca67,%rsi
ffffffff811c9283:	83 f8 ff             	cmp    $0xffffffff,%eax
ffffffff811c9286:	b8 00 00 00 00       	mov    $0x0,%eax
ffffffff811c928b:	48 0f 44 f0          	cmove  %rax,%rsi
ffffffff811c928f:	48 85 c9             	test   %rcx,%rcx
ffffffff811c9292:	48 c7 c0 78 ca 20 82 	mov    $0xffffffff8220ca78,%rax
ffffffff811c9299:	48 0f 45 f0          	cmovne %rax,%rsi
ffffffff811c929d:	8b 47 34             	mov    0x34(%rdi),%eax
ffffffff811c92a0:	85 c0                	test   %eax,%eax
ffffffff811c92a2:	48 c7 c0 89 ca 20 82 	mov    $0xffffffff8220ca89,%rax
ffffffff811c92a9:	48 0f 45 f0          	cmovne %rax,%rsi
ffffffff811c92ad:	48 85 d2             	test   %rdx,%rdx
ffffffff811c92b0:	48 c7 c0 78 be 26 82 	mov    $0xffffffff8226be78,%rax
ffffffff811c92b7:	48 0f 45 f0          	cmovne %rax,%rsi
ffffffff811c92bb:	e8 60 d0 ff ff       	call   ffffffff811c6320 <bad_page>
ffffffff811c92c0:	85 ed                	test   %ebp,%ebp
ffffffff811c92c2:	0f 84 48 fe ff ff    	je     ffffffff811c9110 <get_page_from_freelist+0x2f0>
ffffffff811c92c8:	48 8b 74 24 28       	mov    0x28(%rsp),%rsi
ffffffff811c92cd:	44 89 e9             	mov    %r13d,%ecx
ffffffff811c92d0:	41 83 fd 0a          	cmp    $0xa,%r13d
ffffffff811c92d4:	0f 87 0d 05 00 00    	ja     ffffffff811c97e7 <get_page_from_freelist+0x9c7>
ffffffff811c92da:	89 c8                	mov    %ecx,%eax
ffffffff811c92dc:	48 8d 04 c0          	lea    (%rax,%rax,8),%rax
ffffffff811c92e0:	49 8d 04 c6          	lea    (%r14,%rax,8),%rax
ffffffff811c92e4:	48 8b 90 f0 00 00 00 	mov    0xf0(%rax),%rdx
ffffffff811c92eb:	48 39 f2             	cmp    %rsi,%rdx
ffffffff811c92ee:	0f 84 d9 04 00 00    	je     ffffffff811c97cd <get_page_from_freelist+0x9ad>
ffffffff811c92f4:	48 89 d3             	mov    %rdx,%rbx
ffffffff811c92f7:	48 83 eb 08          	sub    $0x8,%rbx
ffffffff811c92fb:	0f 84 cc 04 00 00    	je     ffffffff811c97cd <get_page_from_freelist+0x9ad>
ffffffff811c9301:	48 8b 3a             	mov    (%rdx),%rdi
ffffffff811c9304:	48 8b 72 08          	mov    0x8(%rdx),%rsi
ffffffff811c9308:	48 89 77 08          	mov    %rsi,0x8(%rdi)
ffffffff811c930c:	48 89 3e             	mov    %rdi,(%rsi)
ffffffff811c930f:	48 bf 00 01 00 00 00 	movabs $0xdead000000000100,%rdi
ffffffff811c9316:	00 ad de 
ffffffff811c9319:	48 89 3a             	mov    %rdi,(%rdx)
ffffffff811c931c:	48 83 c7 22          	add    $0x22,%rdi
ffffffff811c9320:	48 89 7a 08          	mov    %rdi,0x8(%rdx)
ffffffff811c9324:	bf 01 00 00 00       	mov    $0x1,%edi
ffffffff811c9329:	d3 e7                	shl    %cl,%edi
ffffffff811c932b:	81 4a 28 80 00 00 00 	orl    $0x80,0x28(%rdx)
ffffffff811c9332:	48 c7 42 20 00 00 00 	movq   $0x0,0x20(%rdx)
ffffffff811c9339:	00 
ffffffff811c933a:	48 63 ff             	movslq %edi,%rdi
ffffffff811c933d:	48 83 a8 00 01 00 00 	subq   $0x1,0x100(%rax)
ffffffff811c9344:	01 
ffffffff811c9345:	44 39 e9             	cmp    %r13d,%ecx
ffffffff811c9348:	7e 5c                	jle    ffffffff811c93a6 <get_page_from_freelist+0x586>
ffffffff811c934a:	83 e9 01             	sub    $0x1,%ecx
ffffffff811c934d:	48 d1 ef             	shr    $1,%rdi
ffffffff811c9350:	48 63 f1             	movslq %ecx,%rsi
ffffffff811c9353:	48 89 f8             	mov    %rdi,%rax
ffffffff811c9356:	4c 8d 04 f6          	lea    (%rsi,%rsi,8),%r8
ffffffff811c935a:	48 c1 e0 06          	shl    $0x6,%rax
ffffffff811c935e:	4f 8d 8c c6 f0 00 00 	lea    0xf0(%r14,%r8,8),%r9
ffffffff811c9365:	00 
ffffffff811c9366:	41 89 c8             	mov    %ecx,%r8d
ffffffff811c9369:	48 01 d8             	add    %rbx,%rax
ffffffff811c936c:	4f 8d 04 c0          	lea    (%r8,%r8,8),%r8
ffffffff811c9370:	4c 8d 50 08          	lea    0x8(%rax),%r10
ffffffff811c9374:	4f 8d 04 c6          	lea    (%r14,%r8,8),%r8
ffffffff811c9378:	4d 8b 98 f0 00 00 00 	mov    0xf0(%r8),%r11
ffffffff811c937f:	4d 89 53 08          	mov    %r10,0x8(%r11)
ffffffff811c9383:	4c 89 58 08          	mov    %r11,0x8(%rax)
ffffffff811c9387:	4c 89 48 10          	mov    %r9,0x10(%rax)
ffffffff811c938b:	4d 89 11             	mov    %r10,(%r9)
ffffffff811c938e:	49 83 80 00 01 00 00 	addq   $0x1,0x100(%r8)
ffffffff811c9395:	01 
ffffffff811c9396:	48 89 70 28          	mov    %rsi,0x28(%rax)
ffffffff811c939a:	81 60 30 7f ff ff ff 	andl   $0xffffff7f,0x30(%rax)
ffffffff811c93a1:	41 39 cd             	cmp    %ecx,%r13d
ffffffff811c93a4:	75 a4                	jne    ffffffff811c934a <get_page_from_freelist+0x52a>
ffffffff811c93a6:	48 c7 42 18 03 00 00 	movq   $0x3,0x18(%rdx)
ffffffff811c93ad:	00 
ffffffff811c93ae:	0f 1f 44 00 00       	nopl   0x0(%rax,%rax,1)
ffffffff811c93b3:	e9 82 fe ff ff       	jmp    ffffffff811c923a <get_page_from_freelist+0x41a>
ffffffff811c93b8:	8b 54 24 18          	mov    0x18(%rsp),%edx
ffffffff811c93bc:	44 89 d8             	mov    %r11d,%eax
ffffffff811c93bf:	4c 8b 7c 24 70       	mov    0x70(%rsp),%r15
ffffffff811c93c4:	4d 89 eb             	mov    %r13,%r11
ffffffff811c93c7:	41 89 c5             	mov    %eax,%r13d
ffffffff811c93ca:	f7 da                	neg    %edx
ffffffff811c93cc:	48 63 d2             	movslq %edx,%rdx
ffffffff811c93cf:	31 f6                	xor    %esi,%esi
ffffffff811c93d1:	4c 89 f7             	mov    %r14,%rdi
ffffffff811c93d4:	4c 89 5c 24 08       	mov    %r11,0x8(%rsp)
ffffffff811c93d9:	e8 f2 f2 fc ff       	call   ffffffff811986d0 <__mod_zone_page_state>
ffffffff811c93de:	41 c6 86 e0 03 00 00 	movb   $0x0,0x3e0(%r14)
ffffffff811c93e5:	00 
ffffffff811c93e6:	4c 8b 5c 24 08       	mov    0x8(%rsp),%r11
ffffffff811c93eb:	8b 44 24 68          	mov    0x68(%rsp),%eax
ffffffff811c93ef:	41 01 04 24          	add    %eax,(%r12)
ffffffff811c93f3:	49 8b 53 10          	mov    0x10(%r11),%rdx
ffffffff811c93f7:	48 39 54 24 28       	cmp    %rdx,0x28(%rsp)
ffffffff811c93fc:	0f 85 44 01 00 00    	jne    ffffffff811c9546 <get_page_from_freelist+0x726>
ffffffff811c9402:	ff 74 24 20          	push   0x20(%rsp)
ffffffff811c9406:	9d                   	popf
ffffffff811c9407:	49 8b 86 d8 03 00 00 	mov    0x3d8(%r14),%rax
ffffffff811c940e:	a8 01                	test   $0x1,%al
ffffffff811c9410:	74 31                	je     ffffffff811c9443 <get_page_from_freelist+0x623>
ffffffff811c9412:	31 db                	xor    %ebx,%ebx
ffffffff811c9414:	f0 41 80 a6 d8 03 00 	lock andb $0xfe,0x3d8(%r14)
ffffffff811c941b:	00 fe 
ffffffff811c941d:	4c 89 f1             	mov    %r14,%rcx
ffffffff811c9420:	49 2b 4e 50          	sub    0x50(%r14),%rcx
ffffffff811c9424:	31 d2                	xor    %edx,%edx
ffffffff811c9426:	31 f6                	xor    %esi,%esi
ffffffff811c9428:	48 c1 f9 08          	sar    $0x8,%rcx
ffffffff811c942c:	4c 89 f7             	mov    %r14,%rdi
ffffffff811c942f:	69 c9 cd cc cc cc    	imul   $0xcccccccd,%ecx,%ecx
ffffffff811c9435:	e8 36 70 fc ff       	call   ffffffff81190470 <wakeup_kswapd>
ffffffff811c943a:	48 85 db             	test   %rbx,%rbx
ffffffff811c943d:	0f 85 10 0c 00 00    	jne    ffffffff811ca053 <get_page_from_freelist+0x1233>
ffffffff811c9443:	8b 4d 1c             	mov    0x1c(%rbp),%ecx
ffffffff811c9446:	48 8b 55 08          	mov    0x8(%rbp),%rdx
ffffffff811c944a:	49 8d 7f 10          	lea    0x10(%r15),%rdi
ffffffff811c944e:	48 85 d2             	test   %rdx,%rdx
ffffffff811c9451:	0f 84 67 fb ff ff    	je     ffffffff811c8fbe <get_page_from_freelist+0x19e>
ffffffff811c9457:	89 ce                	mov    %ecx,%esi
ffffffff811c9459:	e8 02 e1 fc ff       	call   ffffffff81197560 <__next_zones_zonelist>
ffffffff811c945e:	49 89 c7             	mov    %rax,%r15
ffffffff811c9461:	4d 8b 37             	mov    (%r15),%r14
ffffffff811c9464:	4d 85 f6             	test   %r14,%r14
ffffffff811c9467:	0f 85 6a fb ff ff    	jne    ffffffff811c8fd7 <get_page_from_freelist+0x1b7>
ffffffff811c946d:	8b 44 24 48          	mov    0x48(%rsp),%eax
ffffffff811c9471:	85 c0                	test   %eax,%eax
ffffffff811c9473:	0f 84 d2 0b 00 00    	je     ffffffff811ca04b <get_page_from_freelist+0x122b>
ffffffff811c9479:	48 8b 44 24 78       	mov    0x78(%rsp),%rax
ffffffff811c947e:	81 64 24 04 ff fe ff 	andl   $0xfffffeff,0x4(%rsp)
ffffffff811c9485:	ff 
ffffffff811c9486:	4c 8b 40 10          	mov    0x10(%rax),%r8
ffffffff811c948a:	4d 8b 30             	mov    (%r8),%r14
ffffffff811c948d:	e9 26 fa ff ff       	jmp    ffffffff811c8eb8 <get_page_from_freelist+0x98>
ffffffff811c9492:	f6 44 24 04 40       	testb  $0x40,0x4(%rsp)
ffffffff811c9497:	0f 84 3f fb ff ff    	je     ffffffff811c8fdc <get_page_from_freelist+0x1bc>
ffffffff811c949d:	41 8b 7e 48          	mov    0x48(%r14),%edi
ffffffff811c94a1:	8b 74 24 6c          	mov    0x6c(%rsp),%esi
ffffffff811c94a5:	e8 c6 7d f4 ff       	call   ffffffff81111270 <__cpuset_node_allowed>
ffffffff811c94aa:	84 c0                	test   %al,%al
ffffffff811c94ac:	0f 85 2a fb ff ff    	jne    ffffffff811c8fdc <get_page_from_freelist+0x1bc>
ffffffff811c94b2:	8b 4d 1c             	mov    0x1c(%rbp),%ecx
ffffffff811c94b5:	eb 8f                	jmp    ffffffff811c9446 <get_page_from_freelist+0x626>
ffffffff811c94b7:	8b 7c 24 04          	mov    0x4(%rsp),%edi
ffffffff811c94bb:	49 8b 36             	mov    (%r14),%rsi
ffffffff811c94be:	89 f8                	mov    %edi,%eax
ffffffff811c94c0:	83 e0 20             	and    $0x20,%eax
ffffffff811c94c3:	83 e7 18             	and    $0x18,%edi
ffffffff811c94c6:	0f 85 c5 0b 00 00    	jne    ffffffff811ca091 <get_page_from_freelist+0x1271>
ffffffff811c94cc:	4d 2b 4e 20          	sub    0x20(%r14),%r9
ffffffff811c94d0:	85 c0                	test   %eax,%eax
ffffffff811c94d2:	74 10                	je     ffffffff811c94e4 <get_page_from_freelist+0x6c4>
ffffffff811c94d4:	48 89 f0             	mov    %rsi,%rax
ffffffff811c94d7:	bf 02 00 00 00       	mov    $0x2,%edi
ffffffff811c94dc:	48 99                	cqto
ffffffff811c94de:	48 f7 ff             	idiv   %rdi
ffffffff811c94e1:	48 29 c6             	sub    %rax,%rsi
ffffffff811c94e4:	4b 03 74 d6 28       	add    0x28(%r14,%r10,8),%rsi
ffffffff811c94e9:	4c 39 ce             	cmp    %r9,%rsi
ffffffff811c94ec:	0f 8d 6b fa ff ff    	jge    ffffffff811c8f5d <get_page_from_freelist+0x13d>
ffffffff811c94f2:	8b 45 18             	mov    0x18(%rbp),%eax
ffffffff811c94f5:	89 44 24 08          	mov    %eax,0x8(%rsp)
ffffffff811c94f9:	48 8b 45 10          	mov    0x10(%rbp),%rax
ffffffff811c94fd:	48 8b 00             	mov    (%rax),%rax
ffffffff811c9500:	48 89 44 24 30       	mov    %rax,0x30(%rsp)
ffffffff811c9505:	9c                   	pushf
ffffffff811c9506:	8f 44 24 20          	pop    0x20(%rsp)
ffffffff811c950a:	fa                   	cli
ffffffff811c950b:	4d 8b 66 58          	mov    0x58(%r14),%r12
ffffffff811c950f:	65 4c 03 25 51 80 e4 	add    %gs:0x7ee48051(%rip),%r12        # 11568 <this_cpu_off>
ffffffff811c9516:	7e 
ffffffff811c9517:	48 63 5c 24 08       	movslq 0x8(%rsp),%rbx
ffffffff811c951c:	48 8d 43 01          	lea    0x1(%rbx),%rax
ffffffff811c9520:	48 89 5c 24 10       	mov    %rbx,0x10(%rsp)
ffffffff811c9525:	48 c1 e3 04          	shl    $0x4,%rbx
ffffffff811c9529:	4d 8d 1c 1c          	lea    (%r12,%rbx,1),%r11
ffffffff811c952d:	48 c1 e0 04          	shl    $0x4,%rax
ffffffff811c9531:	49 8b 53 10          	mov    0x10(%r11),%rdx
ffffffff811c9535:	4c 01 e0             	add    %r12,%rax
ffffffff811c9538:	48 89 44 24 28       	mov    %rax,0x28(%rsp)
ffffffff811c953d:	48 39 d0             	cmp    %rdx,%rax
ffffffff811c9540:	0f 84 0b 04 00 00    	je     ffffffff811c9951 <get_page_from_freelist+0xb31>
ffffffff811c9546:	48 bb 00 01 00 00 00 	movabs $0xdead000000000100,%rbx
ffffffff811c954d:	00 ad de 
ffffffff811c9550:	49 8b 43 10          	mov    0x10(%r11),%rax
ffffffff811c9554:	48 8b 08             	mov    (%rax),%rcx
ffffffff811c9557:	48 8b 50 08          	mov    0x8(%rax),%rdx
ffffffff811c955b:	48 89 51 08          	mov    %rdx,0x8(%rcx)                   # crash is here
ffffffff811c955f:	48 89 0a             	mov    %rcx,(%rdx)
ffffffff811c9562:	48 89 18             	mov    %rbx,(%rax)
ffffffff811c9565:	48 83 c3 22          	add    $0x22,%rbx
ffffffff811c9569:	48 89 58 08          	mov    %rbx,0x8(%rax)
ffffffff811c956d:	48 89 c3             	mov    %rax,%rbx
ffffffff811c9570:	41 83 2c 24 01       	subl   $0x1,(%r12)
ffffffff811c9575:	48 83 eb 08          	sub    $0x8,%rbx
ffffffff811c9579:	0f 84 83 fe ff ff    	je     ffffffff811c9402 <get_page_from_freelist+0x5e2>
ffffffff811c957f:	0f b6 40 ff          	movzbl -0x1(%rax),%eax
ffffffff811c9583:	83 e0 03             	and    $0x3,%eax
ffffffff811c9586:	65 48 ff 04 c5 c0 6f 	incq   %gs:0x26fc0(,%rax,8)
ffffffff811c958d:	02 00 
ffffffff811c958f:	0f 1f 44 00 00       	nopl   0x0(%rax,%rax,1)
ffffffff811c9594:	41 8b 46 48          	mov    0x48(%r14),%eax
ffffffff811c9598:	45 31 e4             	xor    %r12d,%r12d
ffffffff811c959b:	48 8b 4c 24 30       	mov    0x30(%rsp),%rcx
ffffffff811c95a0:	65 8b 15 61 dd e5 7e 	mov    %gs:0x7ee5dd61(%rip),%edx        # 27308 <numa_node>
ffffffff811c95a7:	39 d0                	cmp    %edx,%eax
ffffffff811c95a9:	41 0f 95 c4          	setne  %r12b
ffffffff811c95ad:	41 83 c4 04          	add    $0x4,%r12d
ffffffff811c95b1:	3b 41 48             	cmp    0x48(%rcx),%eax
ffffffff811c95b4:	0f 84 7f 07 00 00    	je     ffffffff811c9d39 <get_page_from_freelist+0xf19>
ffffffff811c95ba:	be 01 00 00 00       	mov    $0x1,%esi
ffffffff811c95bf:	4c 89 f7             	mov    %r14,%rdi
ffffffff811c95c2:	e8 69 02 fd ff       	call   ffffffff81199830 <__inc_numa_state>
ffffffff811c95c7:	48 8b 7c 24 30       	mov    0x30(%rsp),%rdi
ffffffff811c95cc:	be 02 00 00 00       	mov    $0x2,%esi
ffffffff811c95d1:	e8 5a 02 fd ff       	call   ffffffff81199830 <__inc_numa_state>
ffffffff811c95d6:	44 89 e6             	mov    %r12d,%esi
ffffffff811c95d9:	4c 89 f7             	mov    %r14,%rdi
ffffffff811c95dc:	e8 4f 02 fd ff       	call   ffffffff81199830 <__inc_numa_state>
ffffffff811c95e1:	ff 74 24 20          	push   0x20(%rsp)
ffffffff811c95e5:	9d                   	popf
ffffffff811c95e6:	49 8b 86 d8 03 00 00 	mov    0x3d8(%r14),%rax
ffffffff811c95ed:	a8 01                	test   $0x1,%al
ffffffff811c95ef:	0f 85 1f fe ff ff    	jne    ffffffff811c9414 <get_page_from_freelist+0x5f4>
ffffffff811c95f5:	8b 4c 24 04          	mov    0x4(%rsp),%ecx
ffffffff811c95f9:	8b 54 24 6c          	mov    0x6c(%rsp),%edx
ffffffff811c95fd:	31 f6                	xor    %esi,%esi
ffffffff811c95ff:	48 89 df             	mov    %rbx,%rdi
ffffffff811c9602:	49 89 de             	mov    %rbx,%r14
ffffffff811c9605:	e8 46 e1 ff ff       	call   ffffffff811c7750 <prep_new_page>
ffffffff811c960a:	48 8b 84 24 c0 00 00 	mov    0xc0(%rsp),%rax
ffffffff811c9611:	00 
ffffffff811c9612:	65 48 2b 04 25 28 00 	sub    %gs:0x28,%rax
ffffffff811c9619:	00 00 
ffffffff811c961b:	0f 85 a4 0a 00 00    	jne    ffffffff811ca0c5 <get_page_from_freelist+0x12a5>
ffffffff811c9621:	48 81 c4 c8 00 00 00 	add    $0xc8,%rsp
ffffffff811c9628:	4c 89 f0             	mov    %r14,%rax
ffffffff811c962b:	5b                   	pop    %rbx
ffffffff811c962c:	5d                   	pop    %rbp
ffffffff811c962d:	41 5c                	pop    %r12
ffffffff811c962f:	41 5d                	pop    %r13
ffffffff811c9631:	41 5e                	pop    %r14
ffffffff811c9633:	41 5f                	pop    %r15
ffffffff811c9635:	c3                   	ret
ffffffff811c9636:	4c 8b 7c 24 10       	mov    0x10(%rsp),%r15
ffffffff811c963b:	48 8b 6c 24 18       	mov    0x18(%rsp),%rbp
ffffffff811c9640:	41 c6 86 e0 03 00 00 	movb   $0x0,0x3e0(%r14)
ffffffff811c9647:	00 
ffffffff811c9648:	48 85 db             	test   %rbx,%rbx
ffffffff811c964b:	0f 84 9a 09 00 00    	je     ffffffff811c9feb <get_page_from_freelist+0x11cb>
ffffffff811c9651:	8b 54 24 4c          	mov    0x4c(%rsp),%edx
ffffffff811c9655:	31 f6                	xor    %esi,%esi
ffffffff811c9657:	4c 89 f7             	mov    %r14,%rdi
ffffffff811c965a:	f7 da                	neg    %edx
ffffffff811c965c:	48 63 d2             	movslq %edx,%rdx
ffffffff811c965f:	e8 6c f0 fc ff       	call   ffffffff811986d0 <__mod_zone_page_state>
ffffffff811c9664:	48 8b 03             	mov    (%rbx),%rax
ffffffff811c9667:	48 8b 8c 24 b0 00 00 	mov    0xb0(%rsp),%rcx
ffffffff811c966e:	00 
ffffffff811c966f:	48 c1 e8 38          	shr    $0x38,%rax
ffffffff811c9673:	83 e0 03             	and    $0x3,%eax
ffffffff811c9676:	65 48 01 0c c5 c0 6f 	add    %rcx,%gs:0x26fc0(,%rax,8)
ffffffff811c967d:	02 00 
ffffffff811c967f:	0f 1f 44 00 00       	nopl   0x0(%rax,%rax,1)
ffffffff811c9684:	41 8b 56 48          	mov    0x48(%r14),%edx
ffffffff811c9688:	48 8b 4c 24 30       	mov    0x30(%rsp),%rcx
ffffffff811c968d:	65 8b 05 74 dc e5 7e 	mov    %gs:0x7ee5dc74(%rip),%eax        # 27308 <numa_node>
ffffffff811c9694:	39 c2                	cmp    %eax,%edx
ffffffff811c9696:	0f 95 c0             	setne  %al
ffffffff811c9699:	0f b6 c0             	movzbl %al,%eax
ffffffff811c969c:	83 c0 04             	add    $0x4,%eax
ffffffff811c969f:	3b 51 48             	cmp    0x48(%rcx),%edx
ffffffff811c96a2:	89 44 24 08          	mov    %eax,0x8(%rsp)
ffffffff811c96a6:	0f 84 38 08 00 00    	je     ffffffff811c9ee4 <get_page_from_freelist+0x10c4>
ffffffff811c96ac:	be 01 00 00 00       	mov    $0x1,%esi
ffffffff811c96b1:	4c 89 f7             	mov    %r14,%rdi
ffffffff811c96b4:	e8 77 01 fd ff       	call   ffffffff81199830 <__inc_numa_state>
ffffffff811c96b9:	48 8b 7c 24 30       	mov    0x30(%rsp),%rdi
ffffffff811c96be:	be 02 00 00 00       	mov    $0x2,%esi
ffffffff811c96c3:	e8 68 01 fd ff       	call   ffffffff81199830 <__inc_numa_state>
ffffffff811c96c8:	8b 44 24 08          	mov    0x8(%rsp),%eax
ffffffff811c96cc:	89 c6                	mov    %eax,%esi
ffffffff811c96ce:	4c 89 f7             	mov    %r14,%rdi
ffffffff811c96d1:	e8 5a 01 fd ff       	call   ffffffff81199830 <__inc_numa_state>
ffffffff811c96d6:	ff 74 24 58          	push   0x58(%rsp)
ffffffff811c96da:	9d                   	popf
ffffffff811c96db:	49 8b 86 d8 03 00 00 	mov    0x3d8(%r14),%rax
ffffffff811c96e2:	a8 01                	test   $0x1,%al
ffffffff811c96e4:	0f 85 2a fd ff ff    	jne    ffffffff811c9414 <get_page_from_freelist+0x5f4>
ffffffff811c96ea:	8b 4c 24 04          	mov    0x4(%rsp),%ecx
ffffffff811c96ee:	8b 54 24 6c          	mov    0x6c(%rsp),%edx
ffffffff811c96f2:	48 89 df             	mov    %rbx,%rdi
ffffffff811c96f5:	4d 89 f5             	mov    %r14,%r13
ffffffff811c96f8:	8b b4 24 a8 00 00 00 	mov    0xa8(%rsp),%esi
ffffffff811c96ff:	49 89 de             	mov    %rbx,%r14
ffffffff811c9702:	e8 49 e0 ff ff       	call   ffffffff811c7750 <prep_new_page>
ffffffff811c9707:	f6 44 24 04 10       	testb  $0x10,0x4(%rsp)
ffffffff811c970c:	0f 84 f8 fe ff ff    	je     ffffffff811c960a <get_page_from_freelist+0x7ea>
ffffffff811c9712:	48 b8 c3 f5 28 5c 8f 	movabs $0x28f5c28f5c28f5c3,%rax
ffffffff811c9719:	c2 f5 28 
ffffffff811c971c:	49 8b 55 68          	mov    0x68(%r13),%rdx
ffffffff811c9720:	48 c1 ea 02          	shr    $0x2,%rdx
ffffffff811c9724:	48 f7 e2             	mul    %rdx
ffffffff811c9727:	48 c1 ea 02          	shr    $0x2,%rdx
ffffffff811c972b:	48 8d 9a 00 02 00 00 	lea    0x200(%rdx),%rbx
ffffffff811c9732:	49 39 5d 20          	cmp    %rbx,0x20(%r13)
ffffffff811c9736:	0f 83 ce fe ff ff    	jae    ffffffff811c960a <get_page_from_freelist+0x7ea>
ffffffff811c973c:	4d 8d a5 e0 03 00 00 	lea    0x3e0(%r13),%r12
ffffffff811c9743:	4c 89 e7             	mov    %r12,%rdi
ffffffff811c9746:	e8 65 c0 9f 00       	call   ffffffff81bc57b0 <_raw_spin_lock_irqsave>
ffffffff811c974b:	4d 8b 7d 20          	mov    0x20(%r13),%r15
ffffffff811c974f:	48 89 c5             	mov    %rax,%rbp
ffffffff811c9752:	49 39 df             	cmp    %rbx,%r15
ffffffff811c9755:	73 55                	jae    ffffffff811c97ac <get_page_from_freelist+0x98c>
ffffffff811c9757:	4c 89 f3             	mov    %r14,%rbx
ffffffff811c975a:	48 2b 1d df cc 11 01 	sub    0x111ccdf(%rip),%rbx        # ffffffff822e6440 <vmemmap_base>
ffffffff811c9761:	ba 07 00 00 00       	mov    $0x7,%edx
ffffffff811c9766:	4c 89 f7             	mov    %r14,%rdi
ffffffff811c9769:	48 c1 fb 06          	sar    $0x6,%rbx
ffffffff811c976d:	48 89 de             	mov    %rbx,%rsi
ffffffff811c9770:	e8 0b de ff ff       	call   ffffffff811c7580 <get_pfnblock_flags_mask>
ffffffff811c9775:	83 f8 03             	cmp    $0x3,%eax
ffffffff811c9778:	74 32                	je     ffffffff811c97ac <get_page_from_freelist+0x98c>
ffffffff811c977a:	b9 07 00 00 00       	mov    $0x7,%ecx
ffffffff811c977f:	48 89 da             	mov    %rbx,%rdx
ffffffff811c9782:	be 03 00 00 00       	mov    $0x3,%esi
ffffffff811c9787:	4c 89 f7             	mov    %r14,%rdi
ffffffff811c978a:	49 8d 87 00 02 00 00 	lea    0x200(%r15),%rax
ffffffff811c9791:	49 89 45 20          	mov    %rax,0x20(%r13)
ffffffff811c9795:	e8 46 de ff ff       	call   ffffffff811c75e0 <set_pfnblock_flags_mask>
ffffffff811c979a:	31 c9                	xor    %ecx,%ecx
ffffffff811c979c:	ba 03 00 00 00       	mov    $0x3,%edx
ffffffff811c97a1:	4c 89 f6             	mov    %r14,%rsi
ffffffff811c97a4:	4c 89 ef             	mov    %r13,%rdi
ffffffff811c97a7:	e8 14 e3 ff ff       	call   ffffffff811c7ac0 <move_freepages_block>
ffffffff811c97ac:	48 89 ee             	mov    %rbp,%rsi
ffffffff811c97af:	4c 89 e7             	mov    %r12,%rdi
ffffffff811c97b2:	e8 59 be 9f 00       	call   ffffffff81bc5610 <_raw_spin_unlock_irqrestore>
ffffffff811c97b7:	e9 4e fe ff ff       	jmp    ffffffff811c960a <get_page_from_freelist+0x7ea>
ffffffff811c97bc:	49 8b 46 50          	mov    0x50(%r14),%rax
ffffffff811c97c0:	8b 4d 1c             	mov    0x1c(%rbp),%ecx
ffffffff811c97c3:	48 89 44 24 40       	mov    %rax,0x40(%rsp)
ffffffff811c97c8:	e9 e0 f7 ff ff       	jmp    ffffffff811c8fad <get_page_from_freelist+0x18d>
ffffffff811c97cd:	83 c1 01             	add    $0x1,%ecx
ffffffff811c97d0:	48 83 c6 48          	add    $0x48,%rsi
ffffffff811c97d4:	83 f9 0b             	cmp    $0xb,%ecx
ffffffff811c97d7:	0f 85 fd fa ff ff    	jne    ffffffff811c92da <get_page_from_freelist+0x4ba>
ffffffff811c97dd:	41 83 fd 0a          	cmp    $0xa,%r13d
ffffffff811c97e1:	0f 86 33 f9 ff ff    	jbe    ffffffff811c911a <get_page_from_freelist+0x2fa>
ffffffff811c97e7:	8b 4c 24 48          	mov    0x48(%rsp),%ecx
ffffffff811c97eb:	85 c9                	test   %ecx,%ecx
ffffffff811c97ed:	0f 84 04 07 00 00    	je     ffffffff811c9ef7 <get_page_from_freelist+0x10d7>
ffffffff811c97f3:	c7 44 24 68 09 00 00 	movl   $0x9,0x68(%rsp)
ffffffff811c97fa:	00 
ffffffff811c97fb:	eb 23                	jmp    ffffffff811c9820 <get_page_from_freelist+0xa00>
ffffffff811c97fd:	83 c1 01             	add    $0x1,%ecx
ffffffff811c9800:	48 83 c6 48          	add    $0x48,%rsi
ffffffff811c9804:	83 f9 0b             	cmp    $0xb,%ecx
ffffffff811c9807:	0f 85 20 f9 ff ff    	jne    ffffffff811c912d <get_page_from_freelist+0x30d>
ffffffff811c980d:	8b 74 24 48          	mov    0x48(%rsp),%esi
ffffffff811c9811:	b8 09 00 00 00       	mov    $0x9,%eax
ffffffff811c9816:	85 f6                	test   %esi,%esi
ffffffff811c9818:	41 0f 44 c5          	cmove  %r13d,%eax
ffffffff811c981c:	89 44 24 68          	mov    %eax,0x68(%rsp)
ffffffff811c9820:	48 8d 84 24 bf 00 00 	lea    0xbf(%rsp),%rax
ffffffff811c9827:	00 
ffffffff811c9828:	89 6c 24 60          	mov    %ebp,0x60(%rsp)
ffffffff811c982c:	bb 0a 00 00 00       	mov    $0xa,%ebx
ffffffff811c9831:	48 89 44 24 20       	mov    %rax,0x20(%rsp)
ffffffff811c9836:	48 63 c3             	movslq %ebx,%rax
ffffffff811c9839:	4c 8b 44 24 20       	mov    0x20(%rsp),%r8
ffffffff811c983e:	8b 54 24 08          	mov    0x8(%rsp),%edx
ffffffff811c9842:	31 c9                	xor    %ecx,%ecx
ffffffff811c9844:	48 8d 04 c0          	lea    (%rax,%rax,8),%rax
ffffffff811c9848:	89 de                	mov    %ebx,%esi
ffffffff811c984a:	49 8d ac c6 c0 00 00 	lea    0xc0(%r14,%rax,8),%rbp
ffffffff811c9851:	00 
ffffffff811c9852:	48 89 ef             	mov    %rbp,%rdi
ffffffff811c9855:	e8 06 e8 ff ff       	call   ffffffff811c8060 <find_suitable_fallback>
ffffffff811c985a:	41 89 c1             	mov    %eax,%r9d
ffffffff811c985d:	83 f8 ff             	cmp    $0xffffffff,%eax
ffffffff811c9860:	0f 84 92 07 00 00    	je     ffffffff811c9ff8 <get_page_from_freelist+0x11d8>
ffffffff811c9866:	44 0f b6 84 24 bf 00 	movzbl 0xbf(%rsp),%r8d
ffffffff811c986d:	00 00 
ffffffff811c986f:	48 89 ef             	mov    %rbp,%rdi
ffffffff811c9872:	8b 6c 24 60          	mov    0x60(%rsp),%ebp
ffffffff811c9876:	45 84 c0             	test   %r8b,%r8b
ffffffff811c9879:	0f 85 8c 06 00 00    	jne    ffffffff811c9f0b <get_page_from_freelist+0x10eb>
ffffffff811c987f:	83 7c 24 08 01       	cmpl   $0x1,0x8(%rsp)
ffffffff811c9884:	0f 94 c2             	sete   %dl
ffffffff811c9887:	41 39 dd             	cmp    %ebx,%r13d
ffffffff811c988a:	0f 9c c0             	setl   %al
ffffffff811c988d:	84 c2                	test   %al,%dl
ffffffff811c988f:	0f 84 76 06 00 00    	je     ffffffff811c9f0b <get_page_from_freelist+0x10eb>
ffffffff811c9895:	41 83 fd 0a          	cmp    $0xa,%r13d
ffffffff811c9899:	0f 8f e0 07 00 00    	jg     ffffffff811ca07f <get_page_from_freelist+0x125f>
ffffffff811c989f:	49 63 c5             	movslq %r13d,%rax
ffffffff811c98a2:	89 6c 24 68          	mov    %ebp,0x68(%rsp)
ffffffff811c98a6:	48 8b 5c 24 20       	mov    0x20(%rsp),%rbx
ffffffff811c98ab:	44 89 ed             	mov    %r13d,%ebp
ffffffff811c98ae:	48 8d 04 c0          	lea    (%rax,%rax,8),%rax
ffffffff811c98b2:	4c 89 64 24 60       	mov    %r12,0x60(%rsp)
ffffffff811c98b7:	49 8d 84 c6 c0 00 00 	lea    0xc0(%r14,%rax,8),%rax
ffffffff811c98be:	00 
ffffffff811c98bf:	eb 11                	jmp    ffffffff811c98d2 <get_page_from_freelist+0xab2>
ffffffff811c98c1:	83 c5 01             	add    $0x1,%ebp
ffffffff811c98c4:	49 8d 44 24 48       	lea    0x48(%r12),%rax
ffffffff811c98c9:	83 fd 0b             	cmp    $0xb,%ebp
ffffffff811c98cc:	0f 84 4f 07 00 00    	je     ffffffff811ca021 <get_page_from_freelist+0x1201>
ffffffff811c98d2:	49 89 d8             	mov    %rbx,%r8
ffffffff811c98d5:	31 c9                	xor    %ecx,%ecx
ffffffff811c98d7:	ba 01 00 00 00       	mov    $0x1,%edx
ffffffff811c98dc:	89 ee                	mov    %ebp,%esi
ffffffff811c98de:	48 89 c7             	mov    %rax,%rdi
ffffffff811c98e1:	49 89 c4             	mov    %rax,%r12
ffffffff811c98e4:	e8 77 e7 ff ff       	call   ffffffff811c8060 <find_suitable_fallback>
ffffffff811c98e9:	41 89 c1             	mov    %eax,%r9d
ffffffff811c98ec:	83 f8 ff             	cmp    $0xffffffff,%eax
ffffffff811c98ef:	74 d0                	je     ffffffff811c98c1 <get_page_from_freelist+0xaa1>
ffffffff811c98f1:	44 0f b6 84 24 bf 00 	movzbl 0xbf(%rsp),%r8d
ffffffff811c98f8:	00 00 
ffffffff811c98fa:	48 98                	cltq
ffffffff811c98fc:	4c 89 e7             	mov    %r12,%rdi
ffffffff811c98ff:	89 eb                	mov    %ebp,%ebx
ffffffff811c9901:	48 89 c2             	mov    %rax,%rdx
ffffffff811c9904:	4c 8b 64 24 60       	mov    0x60(%rsp),%r12
ffffffff811c9909:	8b 6c 24 68          	mov    0x68(%rsp),%ebp
ffffffff811c990d:	48 c1 e2 04          	shl    $0x4,%rdx
ffffffff811c9911:	e9 ff 05 00 00       	jmp    ffffffff811c9f15 <get_page_from_freelist+0x10f5>
ffffffff811c9916:	65 8b 05 43 7c e4 7e 	mov    %gs:0x7ee47c43(%rip),%eax        # 11560 <cpu_number>
ffffffff811c991d:	89 c0                	mov    %eax,%eax
ffffffff811c991f:	48 0f a3 05 e1 ee 4a 	bt     %rax,0x14aeee1(%rip)        # ffffffff82678808 <__cpu_online_mask>
ffffffff811c9926:	01 
ffffffff811c9927:	0f 83 f8 f8 ff ff    	jae    ffffffff811c9225 <get_page_from_freelist+0x405>
ffffffff811c992d:	48 8b 05 ac 21 49 01 	mov    0x14921ac(%rip),%rax        # ffffffff8265bae0 <__tracepoint_mm_page_alloc_zone_locked+0x40>
ffffffff811c9934:	48 85 c0             	test   %rax,%rax
ffffffff811c9937:	74 13                	je     ffffffff811c994c <get_page_from_freelist+0xb2c>
ffffffff811c9939:	48 8b 78 08          	mov    0x8(%rax),%rdi
ffffffff811c993d:	8b 4c 24 08          	mov    0x8(%rsp),%ecx
ffffffff811c9941:	44 89 ea             	mov    %r13d,%edx
ffffffff811c9944:	48 89 de             	mov    %rbx,%rsi
ffffffff811c9947:	e8 c4 71 c3 00       	call   ffffffff81e00b10 <__SCT__tp_func_mm_page_alloc_zone_locked>
ffffffff811c994c:	e9 d4 f8 ff ff       	jmp    ffffffff811c9225 <get_page_from_freelist+0x405>
ffffffff811c9951:	49 63 44 24 08       	movslq 0x8(%r12),%rax
ffffffff811c9956:	49 8d be e0 03 00 00 	lea    0x3e0(%r14),%rdi
ffffffff811c995d:	4c 89 5c 24 18       	mov    %r11,0x18(%rsp)
ffffffff811c9962:	48 89 44 24 60       	mov    %rax,0x60(%rsp)
ffffffff811c9967:	e8 c4 be 9f 00       	call   ffffffff81bc5830 <_raw_spin_lock>
ffffffff811c996c:	48 83 7c 24 60 00    	cmpq   $0x0,0x60(%rsp)
ffffffff811c9972:	4c 8b 5c 24 18       	mov    0x18(%rsp),%r11
ffffffff811c9977:	0f 84 95 06 00 00    	je     ffffffff811ca012 <get_page_from_freelist+0x11f2>
ffffffff811c997d:	48 8b 44 24 10       	mov    0x10(%rsp),%rax
ffffffff811c9982:	c7 44 24 18 00 00 00 	movl   $0x0,0x18(%rsp)
ffffffff811c9989:	00 
ffffffff811c998a:	c7 44 24 68 00 00 00 	movl   $0x0,0x68(%rsp)
ffffffff811c9991:	00 
ffffffff811c9992:	48 8d 50 0c          	lea    0xc(%rax),%rdx
ffffffff811c9996:	4c 89 7c 24 70       	mov    %r15,0x70(%rsp)
ffffffff811c999b:	48 c1 e2 04          	shl    $0x4,%rdx
ffffffff811c999f:	49 8d 04 16          	lea    (%r14,%rdx,1),%rax
ffffffff811c99a3:	48 89 44 24 58       	mov    %rax,0x58(%rsp)
ffffffff811c99a8:	44 89 e8             	mov    %r13d,%eax
ffffffff811c99ab:	4d 89 dd             	mov    %r11,%r13
ffffffff811c99ae:	41 89 c3             	mov    %eax,%r11d
ffffffff811c99b1:	48 8b 74 24 58       	mov    0x58(%rsp),%rsi
ffffffff811c99b6:	31 c9                	xor    %ecx,%ecx
ffffffff811c99b8:	89 c8                	mov    %ecx,%eax
ffffffff811c99ba:	48 8d 04 c0          	lea    (%rax,%rax,8),%rax
ffffffff811c99be:	48 c1 e0 03          	shl    $0x3,%rax
ffffffff811c99c2:	48 8d 14 03          	lea    (%rbx,%rax,1),%rdx
ffffffff811c99c6:	4c 01 f2             	add    %r14,%rdx
ffffffff811c99c9:	4c 8b 8a c0 00 00 00 	mov    0xc0(%rdx),%r9
ffffffff811c99d0:	49 39 f1             	cmp    %rsi,%r9
ffffffff811c99d3:	0f 84 54 01 00 00    	je     ffffffff811c9b2d <get_page_from_freelist+0xd0d>
ffffffff811c99d9:	4d 89 cf             	mov    %r9,%r15
ffffffff811c99dc:	49 83 ef 08          	sub    $0x8,%r15
ffffffff811c99e0:	0f 84 47 01 00 00    	je     ffffffff811c9b2d <get_page_from_freelist+0xd0d>
ffffffff811c99e6:	49 8b 31             	mov    (%r9),%rsi
ffffffff811c99e9:	49 8b 51 08          	mov    0x8(%r9),%rdx
ffffffff811c99ed:	44 8d 41 ff          	lea    -0x1(%rcx),%r8d
ffffffff811c99f1:	48 bf 00 01 00 00 00 	movabs $0xdead000000000100,%rdi
ffffffff811c99f8:	00 ad de 
ffffffff811c99fb:	4d 63 c0             	movslq %r8d,%r8
ffffffff811c99fe:	48 89 56 08          	mov    %rdx,0x8(%rsi)
ffffffff811c9a02:	48 89 32             	mov    %rsi,(%rdx)
ffffffff811c9a05:	49 89 39             	mov    %rdi,(%r9)
ffffffff811c9a08:	48 83 c7 22          	add    $0x22,%rdi
ffffffff811c9a0c:	49 89 79 08          	mov    %rdi,0x8(%r9)
ffffffff811c9a10:	bf 01 00 00 00       	mov    $0x1,%edi
ffffffff811c9a15:	d3 e7                	shl    %cl,%edi
ffffffff811c9a17:	41 81 49 28 80 00 00 	orl    $0x80,0x28(%r9)
ffffffff811c9a1e:	00 
ffffffff811c9a1f:	49 c7 41 20 00 00 00 	movq   $0x0,0x20(%r9)
ffffffff811c9a26:	00 
ffffffff811c9a27:	48 63 ff             	movslq %edi,%rdi
ffffffff811c9a2a:	49 83 ac 06 00 01 00 	subq   $0x1,0x100(%r14,%rax,1)
ffffffff811c9a31:	00 01 
ffffffff811c9a33:	85 c9                	test   %ecx,%ecx
ffffffff811c9a35:	74 71                	je     ffffffff811c9aa8 <get_page_from_freelist+0xc88>
ffffffff811c9a37:	4c 89 4c 24 38       	mov    %r9,0x38(%rsp)
ffffffff811c9a3c:	83 e9 01             	sub    $0x1,%ecx
ffffffff811c9a3f:	48 d1 ef             	shr    $1,%rdi
ffffffff811c9a42:	48 63 d1             	movslq %ecx,%rdx
ffffffff811c9a45:	48 89 f8             	mov    %rdi,%rax
ffffffff811c9a48:	48 8d 14 d2          	lea    (%rdx,%rdx,8),%rdx
ffffffff811c9a4c:	48 c1 e0 06          	shl    $0x6,%rax
ffffffff811c9a50:	48 8d b4 d3 c0 00 00 	lea    0xc0(%rbx,%rdx,8),%rsi
ffffffff811c9a57:	00 
ffffffff811c9a58:	89 ca                	mov    %ecx,%edx
ffffffff811c9a5a:	4c 01 f8             	add    %r15,%rax
ffffffff811c9a5d:	48 8d 14 d2          	lea    (%rdx,%rdx,8),%rdx
ffffffff811c9a61:	4c 01 f6             	add    %r14,%rsi
ffffffff811c9a64:	4c 8d 48 08          	lea    0x8(%rax),%r9
ffffffff811c9a68:	48 c1 e2 03          	shl    $0x3,%rdx
ffffffff811c9a6c:	4c 8d 14 13          	lea    (%rbx,%rdx,1),%r10
ffffffff811c9a70:	4f 8b 94 16 c0 00 00 	mov    0xc0(%r14,%r10,1),%r10
ffffffff811c9a77:	00 
ffffffff811c9a78:	4d 89 4a 08          	mov    %r9,0x8(%r10)
ffffffff811c9a7c:	4c 89 50 08          	mov    %r10,0x8(%rax)
ffffffff811c9a80:	48 89 70 10          	mov    %rsi,0x10(%rax)
ffffffff811c9a84:	4c 89 0e             	mov    %r9,(%rsi)
ffffffff811c9a87:	49 83 84 16 00 01 00 	addq   $0x1,0x100(%r14,%rdx,1)
ffffffff811c9a8e:	00 01 
ffffffff811c9a90:	4c 89 40 28          	mov    %r8,0x28(%rax)
ffffffff811c9a94:	49 83 e8 01          	sub    $0x1,%r8
ffffffff811c9a98:	81 60 30 7f ff ff ff 	andl   $0xffffff7f,0x30(%rax)
ffffffff811c9a9f:	85 c9                	test   %ecx,%ecx
ffffffff811c9aa1:	75 99                	jne    ffffffff811c9a3c <get_page_from_freelist+0xc1c>
ffffffff811c9aa3:	4c 8b 4c 24 38       	mov    0x38(%rsp),%r9
ffffffff811c9aa8:	48 8b 44 24 10       	mov    0x10(%rsp),%rax
ffffffff811c9aad:	49 89 41 18          	mov    %rax,0x18(%r9)
ffffffff811c9ab1:	0f 1f 44 00 00       	nopl   0x0(%rax,%rax,1)
ffffffff811c9ab6:	4d 85 ff             	test   %r15,%r15
ffffffff811c9ab9:	0f 84 f9 f8 ff ff    	je     ffffffff811c93b8 <get_page_from_freelist+0x598>
ffffffff811c9abf:	49 8b 07             	mov    (%r15),%rax
ffffffff811c9ac2:	41 8b 57 30          	mov    0x30(%r15),%edx
ffffffff811c9ac6:	49 8b 77 18          	mov    0x18(%r15),%rsi
ffffffff811c9aca:	25 ff ff ff 00       	and    $0xffffff,%eax
ffffffff811c9acf:	83 fa ff             	cmp    $0xffffffff,%edx
ffffffff811c9ad2:	0f 85 03 02 00 00    	jne    ffffffff811c9cdb <get_page_from_freelist+0xebb>
ffffffff811c9ad8:	49 63 57 34          	movslq 0x34(%r15),%rdx
ffffffff811c9adc:	48 89 f1             	mov    %rsi,%rcx
ffffffff811c9adf:	48 09 c1             	or     %rax,%rcx
ffffffff811c9ae2:	48 09 d1             	or     %rdx,%rcx
ffffffff811c9ae5:	0f 85 f0 01 00 00    	jne    ffffffff811c9cdb <get_page_from_freelist+0xebb>
ffffffff811c9aeb:	49 8b 45 18          	mov    0x18(%r13),%rax
ffffffff811c9aef:	48 8b 4c 24 28       	mov    0x28(%rsp),%rcx
ffffffff811c9af4:	49 8d 57 08          	lea    0x8(%r15),%rdx
ffffffff811c9af8:	83 44 24 68 01       	addl   $0x1,0x68(%rsp)
ffffffff811c9afd:	49 89 55 18          	mov    %rdx,0x18(%r13)
ffffffff811c9b01:	49 89 4f 08          	mov    %rcx,0x8(%r15)
ffffffff811c9b05:	49 89 47 10          	mov    %rax,0x10(%r15)
ffffffff811c9b09:	48 89 10             	mov    %rdx,(%rax)
ffffffff811c9b0c:	8b 44 24 18          	mov    0x18(%rsp),%eax
ffffffff811c9b10:	48 8b 4c 24 60       	mov    0x60(%rsp),%rcx
ffffffff811c9b15:	83 c0 01             	add    $0x1,%eax
ffffffff811c9b18:	48 63 d0             	movslq %eax,%rdx
ffffffff811c9b1b:	48 39 ca             	cmp    %rcx,%rdx
ffffffff811c9b1e:	0f 83 6e 03 00 00    	jae    ffffffff811c9e92 <get_page_from_freelist+0x1072>
ffffffff811c9b24:	89 44 24 18          	mov    %eax,0x18(%rsp)
ffffffff811c9b28:	e9 84 fe ff ff       	jmp    ffffffff811c99b1 <get_page_from_freelist+0xb91>
ffffffff811c9b2d:	83 c1 01             	add    $0x1,%ecx
ffffffff811c9b30:	48 83 c6 48          	add    $0x48,%rsi
ffffffff811c9b34:	83 f9 0b             	cmp    $0xb,%ecx
ffffffff811c9b37:	0f 85 7b fe ff ff    	jne    ffffffff811c99b8 <get_page_from_freelist+0xb98>
ffffffff811c9b3d:	8b 44 24 48          	mov    0x48(%rsp),%eax
ffffffff811c9b41:	48 89 9c 24 88 00 00 	mov    %rbx,0x88(%rsp)
ffffffff811c9b48:	00 
ffffffff811c9b49:	41 bf 0a 00 00 00    	mov    $0xa,%r15d
ffffffff811c9b4f:	4d 8d 8e 90 03 00 00 	lea    0x390(%r14),%r9
ffffffff811c9b56:	44 89 9c 24 90 00 00 	mov    %r11d,0x90(%rsp)
ffffffff811c9b5d:	00 
ffffffff811c9b5e:	45 89 fb             	mov    %r15d,%r11d
ffffffff811c9b61:	4d 89 e7             	mov    %r12,%r15
ffffffff811c9b64:	49 89 ec             	mov    %rbp,%r12
ffffffff811c9b67:	f7 d8                	neg    %eax
ffffffff811c9b69:	4c 89 cd             	mov    %r9,%rbp
ffffffff811c9b6c:	19 c0                	sbb    %eax,%eax
ffffffff811c9b6e:	83 e0 09             	and    $0x9,%eax
ffffffff811c9b71:	83 e8 01             	sub    $0x1,%eax
ffffffff811c9b74:	89 84 24 ac 00 00 00 	mov    %eax,0xac(%rsp)
ffffffff811c9b7b:	48 8d 84 24 bf 00 00 	lea    0xbf(%rsp),%rax
ffffffff811c9b82:	00 
ffffffff811c9b83:	48 89 44 24 38       	mov    %rax,0x38(%rsp)
ffffffff811c9b88:	4c 8b 44 24 38       	mov    0x38(%rsp),%r8
ffffffff811c9b8d:	8b 54 24 08          	mov    0x8(%rsp),%edx
ffffffff811c9b91:	31 c9                	xor    %ecx,%ecx
ffffffff811c9b93:	44 89 de             	mov    %r11d,%esi
ffffffff811c9b96:	48 89 ef             	mov    %rbp,%rdi
ffffffff811c9b99:	44 89 9c 24 80 00 00 	mov    %r11d,0x80(%rsp)
ffffffff811c9ba0:	00 
ffffffff811c9ba1:	e8 ba e4 ff ff       	call   ffffffff811c8060 <find_suitable_fallback>
ffffffff811c9ba6:	44 8b 9c 24 80 00 00 	mov    0x80(%rsp),%r11d
ffffffff811c9bad:	00 
ffffffff811c9bae:	83 f8 ff             	cmp    $0xffffffff,%eax
ffffffff811c9bb1:	41 89 c2             	mov    %eax,%r10d
ffffffff811c9bb4:	0f 84 f4 02 00 00    	je     ffffffff811c9eae <get_page_from_freelist+0x108e>
ffffffff811c9bba:	44 0f b6 84 24 bf 00 	movzbl 0xbf(%rsp),%r8d
ffffffff811c9bc1:	00 00 
ffffffff811c9bc3:	48 89 ef             	mov    %rbp,%rdi
ffffffff811c9bc6:	48 8b 9c 24 88 00 00 	mov    0x88(%rsp),%rbx
ffffffff811c9bcd:	00 
ffffffff811c9bce:	4c 89 e5             	mov    %r12,%rbp
ffffffff811c9bd1:	4d 89 fc             	mov    %r15,%r12
ffffffff811c9bd4:	45 89 df             	mov    %r11d,%r15d
ffffffff811c9bd7:	44 8b 9c 24 90 00 00 	mov    0x90(%rsp),%r11d
ffffffff811c9bde:	00 
ffffffff811c9bdf:	45 84 c0             	test   %r8b,%r8b
ffffffff811c9be2:	0f 85 9b 01 00 00    	jne    ffffffff811c9d83 <get_page_from_freelist+0xf63>
ffffffff811c9be8:	83 7c 24 08 01       	cmpl   $0x1,0x8(%rsp)
ffffffff811c9bed:	41 0f 94 c0          	sete   %r8b
ffffffff811c9bf1:	45 85 ff             	test   %r15d,%r15d
ffffffff811c9bf4:	0f 9f c0             	setg   %al
ffffffff811c9bf7:	41 20 c0             	and    %al,%r8b
ffffffff811c9bfa:	0f 84 83 01 00 00    	je     ffffffff811c9d83 <get_page_from_freelist+0xf63>
ffffffff811c9c00:	45 31 ff             	xor    %r15d,%r15d
ffffffff811c9c03:	48 89 9c 24 80 00 00 	mov    %rbx,0x80(%rsp)
ffffffff811c9c0a:	00 
ffffffff811c9c0b:	49 8d 86 c0 00 00 00 	lea    0xc0(%r14),%rax
ffffffff811c9c12:	48 8b 5c 24 38       	mov    0x38(%rsp),%rbx
ffffffff811c9c17:	48 89 ac 24 90 00 00 	mov    %rbp,0x90(%rsp)
ffffffff811c9c1e:	00 
ffffffff811c9c1f:	44 89 fd             	mov    %r15d,%ebp
ffffffff811c9c22:	4d 89 e7             	mov    %r12,%r15
ffffffff811c9c25:	44 89 9c 24 88 00 00 	mov    %r11d,0x88(%rsp)
ffffffff811c9c2c:	00 
ffffffff811c9c2d:	eb 11                	jmp    ffffffff811c9c40 <get_page_from_freelist+0xe20>
ffffffff811c9c2f:	83 c5 01             	add    $0x1,%ebp
ffffffff811c9c32:	49 8d 44 24 48       	lea    0x48(%r12),%rax
ffffffff811c9c37:	83 fd 0b             	cmp    $0xb,%ebp
ffffffff811c9c3a:	0f 84 6e 03 00 00    	je     ffffffff811c9fae <get_page_from_freelist+0x118e>
ffffffff811c9c40:	49 89 d8             	mov    %rbx,%r8
ffffffff811c9c43:	31 c9                	xor    %ecx,%ecx
ffffffff811c9c45:	ba 01 00 00 00       	mov    $0x1,%edx
ffffffff811c9c4a:	89 ee                	mov    %ebp,%esi
ffffffff811c9c4c:	48 89 c7             	mov    %rax,%rdi
ffffffff811c9c4f:	49 89 c4             	mov    %rax,%r12
ffffffff811c9c52:	e8 09 e4 ff ff       	call   ffffffff811c8060 <find_suitable_fallback>
ffffffff811c9c57:	41 89 c2             	mov    %eax,%r10d
ffffffff811c9c5a:	83 f8 ff             	cmp    $0xffffffff,%eax
ffffffff811c9c5d:	74 d0                	je     ffffffff811c9c2f <get_page_from_freelist+0xe0f>
ffffffff811c9c5f:	48 98                	cltq
ffffffff811c9c61:	4c 89 e7             	mov    %r12,%rdi
ffffffff811c9c64:	48 8b 9c 24 80 00 00 	mov    0x80(%rsp),%rbx
ffffffff811c9c6b:	00 
ffffffff811c9c6c:	4d 89 fc             	mov    %r15,%r12
ffffffff811c9c6f:	48 89 c2             	mov    %rax,%rdx
ffffffff811c9c72:	41 89 ef             	mov    %ebp,%r15d
ffffffff811c9c75:	44 8b 9c 24 88 00 00 	mov    0x88(%rsp),%r11d
ffffffff811c9c7c:	00 
ffffffff811c9c7d:	48 8b ac 24 90 00 00 	mov    0x90(%rsp),%rbp
ffffffff811c9c84:	00 
ffffffff811c9c85:	44 0f b6 84 24 bf 00 	movzbl 0xbf(%rsp),%r8d
ffffffff811c9c8c:	00 00 
ffffffff811c9c8e:	48 c1 e2 04          	shl    $0x4,%rdx
ffffffff811c9c92:	e9 f6 00 00 00       	jmp    ffffffff811c9d8d <get_page_from_freelist+0xf6d>
ffffffff811c9c97:	65 8b 05 c2 78 e4 7e 	mov    %gs:0x7ee478c2(%rip),%eax        # 11560 <cpu_number>
ffffffff811c9c9e:	89 c0                	mov    %eax,%eax
ffffffff811c9ca0:	48 0f a3 05 60 eb 4a 	bt     %rax,0x14aeb60(%rip)        # ffffffff82678808 <__cpu_online_mask>
ffffffff811c9ca7:	01 
ffffffff811c9ca8:	0f 83 08 fe ff ff    	jae    ffffffff811c9ab6 <get_page_from_freelist+0xc96>
ffffffff811c9cae:	48 8b 05 2b 1e 49 01 	mov    0x1491e2b(%rip),%rax        # ffffffff8265bae0 <__tracepoint_mm_page_alloc_zone_locked+0x40>
ffffffff811c9cb5:	48 85 c0             	test   %rax,%rax
ffffffff811c9cb8:	74 1c                	je     ffffffff811c9cd6 <get_page_from_freelist+0xeb6>
ffffffff811c9cba:	48 8b 78 08          	mov    0x8(%rax),%rdi
ffffffff811c9cbe:	8b 4c 24 08          	mov    0x8(%rsp),%ecx
ffffffff811c9cc2:	31 d2                	xor    %edx,%edx
ffffffff811c9cc4:	4c 89 fe             	mov    %r15,%rsi
ffffffff811c9cc7:	44 89 5c 24 38       	mov    %r11d,0x38(%rsp)
ffffffff811c9ccc:	e8 3f 6e c3 00       	call   ffffffff81e00b10 <__SCT__tp_func_mm_page_alloc_zone_locked>
ffffffff811c9cd1:	44 8b 5c 24 38       	mov    0x38(%rsp),%r11d
ffffffff811c9cd6:	e9 db fd ff ff       	jmp    ffffffff811c9ab6 <get_page_from_freelist+0xc96>
ffffffff811c9cdb:	41 8b 57 30          	mov    0x30(%r15),%edx
ffffffff811c9cdf:	48 c7 c1 67 ca 20 82 	mov    $0xffffffff8220ca67,%rcx
ffffffff811c9ce6:	4c 89 ff             	mov    %r15,%rdi
ffffffff811c9ce9:	44 89 5c 24 38       	mov    %r11d,0x38(%rsp)
ffffffff811c9cee:	83 fa ff             	cmp    $0xffffffff,%edx
ffffffff811c9cf1:	ba 00 00 00 00       	mov    $0x0,%edx
ffffffff811c9cf6:	48 0f 45 d1          	cmovne %rcx,%rdx
ffffffff811c9cfa:	48 85 f6             	test   %rsi,%rsi
ffffffff811c9cfd:	48 c7 c1 78 ca 20 82 	mov    $0xffffffff8220ca78,%rcx
ffffffff811c9d04:	48 0f 45 d1          	cmovne %rcx,%rdx
ffffffff811c9d08:	41 8b 4f 34          	mov    0x34(%r15),%ecx
ffffffff811c9d0c:	85 c9                	test   %ecx,%ecx
ffffffff811c9d0e:	48 c7 c1 89 ca 20 82 	mov    $0xffffffff8220ca89,%rcx
ffffffff811c9d15:	48 0f 45 d1          	cmovne %rcx,%rdx
ffffffff811c9d19:	48 85 c0             	test   %rax,%rax
ffffffff811c9d1c:	48 c7 c0 78 be 26 82 	mov    $0xffffffff8226be78,%rax
ffffffff811c9d23:	48 0f 45 d0          	cmovne %rax,%rdx
ffffffff811c9d27:	48 89 d6             	mov    %rdx,%rsi
ffffffff811c9d2a:	e8 f1 c5 ff ff       	call   ffffffff811c6320 <bad_page>
ffffffff811c9d2f:	44 8b 5c 24 38       	mov    0x38(%rsp),%r11d
ffffffff811c9d34:	e9 d3 fd ff ff       	jmp    ffffffff811c9b0c <get_page_from_freelist+0xcec>
ffffffff811c9d39:	31 f6                	xor    %esi,%esi
ffffffff811c9d3b:	4c 89 f7             	mov    %r14,%rdi
ffffffff811c9d3e:	e8 ed fa fc ff       	call   ffffffff81199830 <__inc_numa_state>
ffffffff811c9d43:	e9 8e f8 ff ff       	jmp    ffffffff811c95d6 <get_page_from_freelist+0x7b6>
ffffffff811c9d48:	65 8b 05 11 78 e4 7e 	mov    %gs:0x7ee47811(%rip),%eax        # 11560 <cpu_number>
ffffffff811c9d4f:	89 c0                	mov    %eax,%eax
ffffffff811c9d51:	48 0f a3 05 af ea 4a 	bt     %rax,0x14aeaaf(%rip)        # ffffffff82678808 <__cpu_online_mask>
ffffffff811c9d58:	01 
ffffffff811c9d59:	0f 83 db f4 ff ff    	jae    ffffffff811c923a <get_page_from_freelist+0x41a>
ffffffff811c9d5f:	48 8b 05 7a 1d 49 01 	mov    0x1491d7a(%rip),%rax        # ffffffff8265bae0 <__tracepoint_mm_page_alloc_zone_locked+0x40>
ffffffff811c9d66:	48 85 c0             	test   %rax,%rax
ffffffff811c9d69:	74 13                	je     ffffffff811c9d7e <get_page_from_freelist+0xf5e>
ffffffff811c9d6b:	48 8b 78 08          	mov    0x8(%rax),%rdi
ffffffff811c9d6f:	8b 4c 24 08          	mov    0x8(%rsp),%ecx
ffffffff811c9d73:	44 89 ea             	mov    %r13d,%edx
ffffffff811c9d76:	48 89 de             	mov    %rbx,%rsi
ffffffff811c9d79:	e8 92 6d c3 00       	call   ffffffff81e00b10 <__SCT__tp_func_mm_page_alloc_zone_locked>
ffffffff811c9d7e:	e9 b7 f4 ff ff       	jmp    ffffffff811c923a <get_page_from_freelist+0x41a>
ffffffff811c9d83:	49 63 c2             	movslq %r10d,%rax
ffffffff811c9d86:	48 89 c2             	mov    %rax,%rdx
ffffffff811c9d89:	48 c1 e2 04          	shl    $0x4,%rdx
ffffffff811c9d8d:	48 c1 e0 04          	shl    $0x4,%rax
ffffffff811c9d91:	8b 4c 24 08          	mov    0x8(%rsp),%ecx
ffffffff811c9d95:	45 0f b6 c0          	movzbl %r8b,%r8d
ffffffff811c9d99:	44 89 9c 24 80 00 00 	mov    %r11d,0x80(%rsp)
ffffffff811c9da0:	00 
ffffffff811c9da1:	48 01 f8             	add    %rdi,%rax
ffffffff811c9da4:	48 01 d7             	add    %rdx,%rdi
ffffffff811c9da7:	44 89 54 24 38       	mov    %r10d,0x38(%rsp)
ffffffff811c9dac:	48 8b 00             	mov    (%rax),%rax
ffffffff811c9daf:	48 39 f8             	cmp    %rdi,%rax
ffffffff811c9db2:	48 8d 50 f8          	lea    -0x8(%rax),%rdx
ffffffff811c9db6:	b8 00 00 00 00       	mov    $0x0,%eax
ffffffff811c9dbb:	4c 89 f7             	mov    %r14,%rdi
ffffffff811c9dbe:	48 0f 45 c2          	cmovne %rdx,%rax
ffffffff811c9dc2:	8b 54 24 04          	mov    0x4(%rsp),%edx
ffffffff811c9dc6:	48 89 c6             	mov    %rax,%rsi
ffffffff811c9dc9:	48 89 84 24 88 00 00 	mov    %rax,0x88(%rsp)
ffffffff811c9dd0:	00 
ffffffff811c9dd1:	e8 4a de ff ff       	call   ffffffff811c7c20 <steal_suitable_fallback>
ffffffff811c9dd6:	44 8b 54 24 38       	mov    0x38(%rsp),%r10d
ffffffff811c9ddb:	44 8b 9c 24 80 00 00 	mov    0x80(%rsp),%r11d
ffffffff811c9de2:	00 
ffffffff811c9de3:	0f 1f 44 00 00       	nopl   0x0(%rax,%rax,1)
ffffffff811c9de8:	e9 c4 fb ff ff       	jmp    ffffffff811c99b1 <get_page_from_freelist+0xb91>
ffffffff811c9ded:	49 8b 86 40 04 00 00 	mov    0x440(%r14),%rax
ffffffff811c9df4:	45 31 c9             	xor    %r9d,%r9d
ffffffff811c9df7:	48 89 da             	mov    %rbx,%rdx
ffffffff811c9dfa:	44 89 ee             	mov    %r13d,%esi
ffffffff811c9dfd:	44 8b 44 24 04       	mov    0x4(%rsp),%r8d
ffffffff811c9e02:	4c 89 f7             	mov    %r14,%rdi
ffffffff811c9e05:	89 4c 24 08          	mov    %ecx,0x8(%rsp)
ffffffff811c9e09:	48 85 c0             	test   %rax,%rax
ffffffff811c9e0c:	4c 0f 49 c8          	cmovns %rax,%r9
ffffffff811c9e10:	e8 db ee ff ff       	call   ffffffff811c8cf0 <__zone_watermark_ok>
ffffffff811c9e15:	8b 4c 24 08          	mov    0x8(%rsp),%ecx
ffffffff811c9e19:	84 c0                	test   %al,%al
ffffffff811c9e1b:	0f 84 8c f1 ff ff    	je     ffffffff811c8fad <get_page_from_freelist+0x18d>
ffffffff811c9e21:	8b 45 18             	mov    0x18(%rbp),%eax
ffffffff811c9e24:	89 44 24 08          	mov    %eax,0x8(%rsp)
ffffffff811c9e28:	48 8b 45 10          	mov    0x10(%rbp),%rax
ffffffff811c9e2c:	48 8b 00             	mov    (%rax),%rax
ffffffff811c9e2f:	48 89 44 24 30       	mov    %rax,0x30(%rsp)
ffffffff811c9e34:	45 85 ed             	test   %r13d,%r13d
ffffffff811c9e37:	0f 85 61 f2 ff ff    	jne    ffffffff811c909e <get_page_from_freelist+0x27e>
ffffffff811c9e3d:	e9 c3 f6 ff ff       	jmp    ffffffff811c9505 <get_page_from_freelist+0x6e5>
ffffffff811c9e42:	65 8b 05 17 77 e4 7e 	mov    %gs:0x7ee47717(%rip),%eax        # 11560 <cpu_number>
ffffffff811c9e49:	89 c0                	mov    %eax,%eax
ffffffff811c9e4b:	48 0f a3 05 b5 e9 4a 	bt     %rax,0x14ae9b5(%rip)        # ffffffff82678808 <__cpu_online_mask>
ffffffff811c9e52:	01 
ffffffff811c9e53:	0f 83 58 fb ff ff    	jae    ffffffff811c99b1 <get_page_from_freelist+0xb91>
ffffffff811c9e59:	48 8b 05 c0 1b 49 01 	mov    0x1491bc0(%rip),%rax        # ffffffff8265ba20 <__tracepoint_mm_page_alloc_extfrag+0x40>
ffffffff811c9e60:	48 85 c0             	test   %rax,%rax
ffffffff811c9e63:	74 28                	je     ffffffff811c9e8d <get_page_from_freelist+0x106d>
ffffffff811c9e65:	48 8b 78 08          	mov    0x8(%rax),%rdi
ffffffff811c9e69:	44 8b 44 24 08       	mov    0x8(%rsp),%r8d
ffffffff811c9e6e:	45 89 d1             	mov    %r10d,%r9d
ffffffff811c9e71:	44 89 f9             	mov    %r15d,%ecx
ffffffff811c9e74:	48 8b b4 24 88 00 00 	mov    0x88(%rsp),%rsi
ffffffff811c9e7b:	00 
ffffffff811c9e7c:	31 d2                	xor    %edx,%edx
ffffffff811c9e7e:	44 89 5c 24 38       	mov    %r11d,0x38(%rsp)
ffffffff811c9e83:	e8 98 6c c3 00       	call   ffffffff81e00b20 <__SCT__tp_func_mm_page_alloc_extfrag>
ffffffff811c9e88:	44 8b 5c 24 38       	mov    0x38(%rsp),%r11d
ffffffff811c9e8d:	e9 1f fb ff ff       	jmp    ffffffff811c99b1 <get_page_from_freelist+0xb91>
ffffffff811c9e92:	8b 54 24 18          	mov    0x18(%rsp),%edx
ffffffff811c9e96:	44 89 d8             	mov    %r11d,%eax
ffffffff811c9e99:	4c 8b 7c 24 70       	mov    0x70(%rsp),%r15
ffffffff811c9e9e:	4d 89 eb             	mov    %r13,%r11
ffffffff811c9ea1:	41 89 c5             	mov    %eax,%r13d
ffffffff811c9ea4:	f7 d2                	not    %edx
ffffffff811c9ea6:	48 63 d2             	movslq %edx,%rdx
ffffffff811c9ea9:	e9 21 f5 ff ff       	jmp    ffffffff811c93cf <get_page_from_freelist+0x5af>
ffffffff811c9eae:	8b 84 24 ac 00 00 00 	mov    0xac(%rsp),%eax
ffffffff811c9eb5:	41 83 eb 01          	sub    $0x1,%r11d
ffffffff811c9eb9:	48 83 ed 48          	sub    $0x48,%rbp
ffffffff811c9ebd:	41 39 c3             	cmp    %eax,%r11d
ffffffff811c9ec0:	0f 85 c2 fc ff ff    	jne    ffffffff811c9b88 <get_page_from_freelist+0xd68>
ffffffff811c9ec6:	4c 89 e5             	mov    %r12,%rbp
ffffffff811c9ec9:	48 8b 9c 24 88 00 00 	mov    0x88(%rsp),%rbx
ffffffff811c9ed0:	00 
ffffffff811c9ed1:	4d 89 fc             	mov    %r15,%r12
ffffffff811c9ed4:	44 8b 9c 24 90 00 00 	mov    0x90(%rsp),%r11d
ffffffff811c9edb:	00 
ffffffff811c9edc:	45 31 ff             	xor    %r15d,%r15d
ffffffff811c9edf:	e9 cd fb ff ff       	jmp    ffffffff811c9ab1 <get_page_from_freelist+0xc91>
ffffffff811c9ee4:	31 f6                	xor    %esi,%esi
ffffffff811c9ee6:	4c 89 f7             	mov    %r14,%rdi
ffffffff811c9ee9:	e8 42 f9 fc ff       	call   ffffffff81199830 <__inc_numa_state>
ffffffff811c9eee:	8b 44 24 08          	mov    0x8(%rsp),%eax
ffffffff811c9ef2:	e9 d5 f7 ff ff       	jmp    ffffffff811c96cc <get_page_from_freelist+0x8ac>
ffffffff811c9ef7:	41 83 fd 0a          	cmp    $0xa,%r13d
ffffffff811c9efb:	0f 8f 0a 01 00 00    	jg     ffffffff811ca00b <get_page_from_freelist+0x11eb>
ffffffff811c9f01:	44 89 6c 24 68       	mov    %r13d,0x68(%rsp)
ffffffff811c9f06:	e9 15 f9 ff ff       	jmp    ffffffff811c9820 <get_page_from_freelist+0xa00>
ffffffff811c9f0b:	49 63 c1             	movslq %r9d,%rax
ffffffff811c9f0e:	48 89 c2             	mov    %rax,%rdx
ffffffff811c9f11:	48 c1 e2 04          	shl    $0x4,%rdx
ffffffff811c9f15:	48 c1 e0 04          	shl    $0x4,%rax
ffffffff811c9f19:	8b 4c 24 08          	mov    0x8(%rsp),%ecx
ffffffff811c9f1d:	44 89 4c 24 60       	mov    %r9d,0x60(%rsp)
ffffffff811c9f22:	48 01 f8             	add    %rdi,%rax
ffffffff811c9f25:	48 01 d7             	add    %rdx,%rdi
ffffffff811c9f28:	8b 54 24 04          	mov    0x4(%rsp),%edx
ffffffff811c9f2c:	48 8b 00             	mov    (%rax),%rax
ffffffff811c9f2f:	48 39 f8             	cmp    %rdi,%rax
ffffffff811c9f32:	48 8d 70 f8          	lea    -0x8(%rax),%rsi
ffffffff811c9f36:	b8 00 00 00 00       	mov    $0x0,%eax
ffffffff811c9f3b:	4c 89 f7             	mov    %r14,%rdi
ffffffff811c9f3e:	48 0f 44 f0          	cmove  %rax,%rsi
ffffffff811c9f42:	48 89 74 24 20       	mov    %rsi,0x20(%rsp)
ffffffff811c9f47:	e8 d4 dc ff ff       	call   ffffffff811c7c20 <steal_suitable_fallback>
ffffffff811c9f4c:	48 8b 74 24 20       	mov    0x20(%rsp),%rsi
ffffffff811c9f51:	44 8b 4c 24 60       	mov    0x60(%rsp),%r9d
ffffffff811c9f56:	0f 1f 44 00 00       	nopl   0x0(%rax,%rax,1)
ffffffff811c9f5b:	e9 b0 f1 ff ff       	jmp    ffffffff811c9110 <get_page_from_freelist+0x2f0>
ffffffff811c9f60:	65 8b 05 f9 75 e4 7e 	mov    %gs:0x7ee475f9(%rip),%eax        # 11560 <cpu_number>
ffffffff811c9f67:	89 c0                	mov    %eax,%eax
ffffffff811c9f69:	48 0f a3 05 97 e8 4a 	bt     %rax,0x14ae897(%rip)        # ffffffff82678808 <__cpu_online_mask>
ffffffff811c9f70:	01 
ffffffff811c9f71:	0f 83 99 f1 ff ff    	jae    ffffffff811c9110 <get_page_from_freelist+0x2f0>
ffffffff811c9f77:	48 8b 05 a2 1a 49 01 	mov    0x1491aa2(%rip),%rax        # ffffffff8265ba20 <__tracepoint_mm_page_alloc_extfrag+0x40>
ffffffff811c9f7e:	48 85 c0             	test   %rax,%rax
ffffffff811c9f81:	74 13                	je     ffffffff811c9f96 <get_page_from_freelist+0x1176>
ffffffff811c9f83:	48 8b 78 08          	mov    0x8(%rax),%rdi
ffffffff811c9f87:	44 8b 44 24 08       	mov    0x8(%rsp),%r8d
ffffffff811c9f8c:	89 d9                	mov    %ebx,%ecx
ffffffff811c9f8e:	44 89 ea             	mov    %r13d,%edx
ffffffff811c9f91:	e8 8a 6b c3 00       	call   ffffffff81e00b20 <__SCT__tp_func_mm_page_alloc_extfrag>
ffffffff811c9f96:	e9 75 f1 ff ff       	jmp    ffffffff811c9110 <get_page_from_freelist+0x2f0>
ffffffff811c9f9b:	81 64 24 04 ff fe ff 	andl   $0xfffffeff,0x4(%rsp)
ffffffff811c9fa2:	ff 
ffffffff811c9fa3:	49 89 c6             	mov    %rax,%r14
ffffffff811c9fa6:	49 89 d0             	mov    %rdx,%r8
ffffffff811c9fa9:	e9 0a ef ff ff       	jmp    ffffffff811c8eb8 <get_page_from_freelist+0x98>
ffffffff811c9fae:	4c 89 e7             	mov    %r12,%rdi
ffffffff811c9fb1:	48 c7 c2 f0 ff ff ff 	mov    $0xfffffffffffffff0,%rdx
ffffffff811c9fb8:	4d 89 fc             	mov    %r15,%r12
ffffffff811c9fbb:	48 8b 9c 24 80 00 00 	mov    0x80(%rsp),%rbx
ffffffff811c9fc2:	00 
ffffffff811c9fc3:	41 89 ef             	mov    %ebp,%r15d
ffffffff811c9fc6:	44 8b 9c 24 88 00 00 	mov    0x88(%rsp),%r11d
ffffffff811c9fcd:	00 
ffffffff811c9fce:	48 8b ac 24 90 00 00 	mov    0x90(%rsp),%rbp
ffffffff811c9fd5:	00 
ffffffff811c9fd6:	48 c7 c0 ff ff ff ff 	mov    $0xffffffffffffffff,%rax
ffffffff811c9fdd:	44 0f b6 84 24 bf 00 	movzbl 0xbf(%rsp),%r8d
ffffffff811c9fe4:	00 00 
ffffffff811c9fe6:	e9 a2 fd ff ff       	jmp    ffffffff811c9d8d <get_page_from_freelist+0xf6d>
ffffffff811c9feb:	ff 74 24 58          	push   0x58(%rsp)
ffffffff811c9fef:	9d                   	popf
ffffffff811c9ff0:	8b 4d 1c             	mov    0x1c(%rbp),%ecx
ffffffff811c9ff3:	e9 b5 ef ff ff       	jmp    ffffffff811c8fad <get_page_from_freelist+0x18d>
ffffffff811c9ff8:	8b 44 24 68          	mov    0x68(%rsp),%eax
ffffffff811c9ffc:	83 eb 01             	sub    $0x1,%ebx
ffffffff811c9fff:	39 c3                	cmp    %eax,%ebx
ffffffff811ca001:	0f 8d 2f f8 ff ff    	jge    ffffffff811c9836 <get_page_from_freelist+0xa16>
ffffffff811ca007:	8b 6c 24 60          	mov    0x60(%rsp),%ebp
ffffffff811ca00b:	31 db                	xor    %ebx,%ebx
ffffffff811ca00d:	e9 0e f2 ff ff       	jmp    ffffffff811c9220 <get_page_from_freelist+0x400>
ffffffff811ca012:	c7 44 24 68 00 00 00 	movl   $0x0,0x68(%rsp)
ffffffff811ca019:	00 
ffffffff811ca01a:	31 d2                	xor    %edx,%edx
ffffffff811ca01c:	e9 ae f3 ff ff       	jmp    ffffffff811c93cf <get_page_from_freelist+0x5af>
ffffffff811ca021:	4c 89 e7             	mov    %r12,%rdi
ffffffff811ca024:	89 eb                	mov    %ebp,%ebx
ffffffff811ca026:	8b 6c 24 68          	mov    0x68(%rsp),%ebp
ffffffff811ca02a:	4c 8b 64 24 60       	mov    0x60(%rsp),%r12
ffffffff811ca02f:	44 0f b6 84 24 bf 00 	movzbl 0xbf(%rsp),%r8d
ffffffff811ca036:	00 00 
ffffffff811ca038:	48 c7 c2 f0 ff ff ff 	mov    $0xfffffffffffffff0,%rdx
ffffffff811ca03f:	48 c7 c0 ff ff ff ff 	mov    $0xffffffffffffffff,%rax
ffffffff811ca046:	e9 ca fe ff ff       	jmp    ffffffff811c9f15 <get_page_from_freelist+0x10f5>
ffffffff811ca04b:	45 31 f6             	xor    %r14d,%r14d
ffffffff811ca04e:	e9 b7 f5 ff ff       	jmp    ffffffff811c960a <get_page_from_freelist+0x7ea>
ffffffff811ca053:	4d 89 f5             	mov    %r14,%r13
ffffffff811ca056:	49 89 de             	mov    %rbx,%r14
ffffffff811ca059:	8b 4c 24 04          	mov    0x4(%rsp),%ecx
ffffffff811ca05d:	8b 54 24 6c          	mov    0x6c(%rsp),%edx
ffffffff811ca061:	8b 9c 24 a8 00 00 00 	mov    0xa8(%rsp),%ebx
ffffffff811ca068:	4c 89 f7             	mov    %r14,%rdi
ffffffff811ca06b:	89 de                	mov    %ebx,%esi
ffffffff811ca06d:	e8 de d6 ff ff       	call   ffffffff811c7750 <prep_new_page>
ffffffff811ca072:	85 db                	test   %ebx,%ebx
ffffffff811ca074:	0f 85 8d f6 ff ff    	jne    ffffffff811c9707 <get_page_from_freelist+0x8e7>
ffffffff811ca07a:	e9 8b f5 ff ff       	jmp    ffffffff811c960a <get_page_from_freelist+0x7ea>
ffffffff811ca07f:	49 63 c1             	movslq %r9d,%rax
ffffffff811ca082:	44 89 eb             	mov    %r13d,%ebx
ffffffff811ca085:	48 89 c2             	mov    %rax,%rdx
ffffffff811ca088:	48 c1 e2 04          	shl    $0x4,%rdx
ffffffff811ca08c:	e9 84 fe ff ff       	jmp    ffffffff811c9f15 <get_page_from_freelist+0x10f5>
ffffffff811ca091:	85 c0                	test   %eax,%eax
ffffffff811ca093:	74 10                	je     ffffffff811ca0a5 <get_page_from_freelist+0x1285>
ffffffff811ca095:	48 89 f0             	mov    %rsi,%rax
ffffffff811ca098:	bf 02 00 00 00       	mov    $0x2,%edi
ffffffff811ca09d:	48 99                	cqto
ffffffff811ca09f:	48 f7 ff             	idiv   %rdi
ffffffff811ca0a2:	48 29 c6             	sub    %rax,%rsi
ffffffff811ca0a5:	f6 44 24 04 08       	testb  $0x8,0x4(%rsp)
ffffffff811ca0aa:	0f 85 24 f4 ff ff    	jne    ffffffff811c94d4 <get_page_from_freelist+0x6b4>
ffffffff811ca0b0:	48 89 f0             	mov    %rsi,%rax
ffffffff811ca0b3:	bf 04 00 00 00       	mov    $0x4,%edi
ffffffff811ca0b8:	48 99                	cqto
ffffffff811ca0ba:	48 f7 ff             	idiv   %rdi
ffffffff811ca0bd:	48 29 c6             	sub    %rax,%rsi
ffffffff811ca0c0:	e9 1f f4 ff ff       	jmp    ffffffff811c94e4 <get_page_from_freelist+0x6c4>
ffffffff811ca0c5:	e8 c6 4b 9f 00       	call   ffffffff81bbec90 <__stack_chk_fail>

Disassembly of section .init.text:

Disassembly of section .altinstr_aux:

Disassembly of section .altinstr_replacement:

Disassembly of section .exit.text:
